(imatplotlib.font_manager
FontManager
p1
(dp2
S'afm_lookup_cache'
p3
(dp4
sS'ttflist'
p5
(lp6
ccopy_reg
_reconstructor
p7
(cmatplotlib.font_manager
FontEntry
p8
c__builtin__
object
p9
NtRp10
(dp11
S'style'
p12
S'normal'
p13
sS'name'
p14
S'GFS Didot'
p15
sS'weight'
p16
I700
sS'stretch'
p17
g13
sS'variant'
p18
g13
sS'fname'
p19
S'/usr/share/fonts/texlive-gfsdidot/GFSDidotBold.otf'
p20
sS'size'
p21
S'scalable'
p22
sbag7
(g8
g9
NtRp23
(dp24
g12
g13
sg14
S'Linux Biolinum Shadow O'
p25
sg16
I700
sg17
g13
sg18
g13
sg19
S'/usr/share/fonts/texlive-libertine/fxbsb.otf'
p26
sg21
g22
sbag7
(g8
g9
NtRp27
(dp28
g12
S'oblique'
p29
sg14
S'Latin Modern Sans'
p30
sg16
I400
sg17
g13
sg18
g13
sg19
S'/usr/share/fonts/texlive-lm/lmsans17-oblique.otf'
p31
sg21
g22
sbag7
(g8
g9
NtRp32
(dp33
g12
g13
sg14
S'Kurier Light'
p34
sg16
I200
sg17
g13
sg18
g13
sg19
S'/usr/share/fonts/texlive-kurier/KurierLight-Regular.otf'
p35
sg21
g22
sbag7
(g8
g9
NtRp36
(dp37
g12
S'italic'
p38
sg14
S'Antykwa Poltawskiego Light'
p39
sg16
I200
sg17
g13
sg18
g13
sg19
S'/usr/share/fonts/texlive-poltawski/antpoltltsemiexpd-italic.otf'
p40
sg21
g22
sbag7
(g8
g9
NtRp41
(dp42
g12
g13
sg14
S'FreeMono'
p43
sg16
I700
sg17
g13
sg18
g13
sg19
S'/usr/share/fonts/texlive-gnu-freefont/FreeMonoBold.ttf'
p44
sg21
g22
sbag7
(g8
g9
NtRp45
(dp46
g12
g29
sg14
S'Latin Modern Mono Caps'
p47
sg16
I400
sg17
g13
sg18
g13
sg19
S'/usr/share/fonts/texlive-lm/lmmonocaps10-oblique.otf'
p48
sg21
g22
sbag7
(g8
g9
NtRp49
(dp50
g12
g13
sg14
S'Antykwa Torunska Condensed'
p51
sg16
I500
sg17
S'condensed'
p52
sg18
g13
sg19
S'/usr/share/fonts/texlive-antt/AntykwaTorunskaCondMed-Regular.otf'
p53
sg21
g22
sbag7
(g8
g9
NtRp54
(dp55
g12
g29
sg14
S'FreeMono'
p56
sg16
I400
sg17
g13
sg18
g13
sg19
S'/usr/share/fonts/texlive-gnu-freefont/FreeMonoOblique.otf'
p57
sg21
g22
sbag7
(g8
g9
NtRp58
(dp59
g12
g38
sg14
S'Antykwa Poltawskiego Light'
p60
sg16
I700
sg17
g13
sg18
g13
sg19
S'/usr/share/fonts/texlive-poltawski/antpoltltsemiexpd-bolditalic.otf'
p61
sg21
g22
sbag7
(g8
g9
NtRp62
(dp63
g12
g13
sg14
S'GFS Didot'
p64
sg16
I400
sg17
g13
sg18
g13
sg19
S'/usr/share/fonts/texlive-gfsdidot/GFSDidot.otf'
p65
sg21
g22
sbag7
(g8
g9
NtRp66
(dp67
g12
g13
sg14
S'PT Serif'
p68
sg16
I700
sg17
g13
sg18
g13
sg19
S'/usr/share/fonts/texlive-paratype/PTF75F.ttf'
p69
sg21
g22
sbag7
(g8
g9
NtRp70
(dp71
g12
g13
sg14
S'STIXSizeOneSym'
p72
sg16
I700
sg17
g13
sg18
g13
sg19
S'/usr/share/fonts/texlive-stix/STIXSizOneSymBol.otf'
p73
sg21
g22
sbag7
(g8
g9
NtRp74
(dp75
g12
g13
sg14
S'FonetikaDaniaPallae'
p76
sg16
I700
sg17
g13
sg18
g13
sg19
S'/usr/share/fonts/texlive-fonetika/FonetikaDaniaPallaeBold.ttf'
p77
sg21
g22
sbag7
(g8
g9
NtRp78
(dp79
g12
g13
sg14
S'CMU Bright'
p80
sg16
I700
sg17
g13
sg18
g13
sg19
S'/usr/share/fonts/texlive-cm-unicode/cmunbbx.otf'
p81
sg21
g22
sbag7
(g8
g9
NtRp82
(dp83
g12
g13
sg14
S'DejaVu Sans'
p84
sg16
I700
sg17
g13
sg18
g13
sg19
S'/usr/share/fonts/dejavu/DejaVuSans-Bold.ttf'
p85
sg21
g22
sbag7
(g8
g9
NtRp86
(dp87
g12
g13
sg14
S'Antykwa Poltawskiego Light'
p88
sg16
I400
sg17
g13
sg18
g13
sg19
S'/usr/share/fonts/texlive-poltawski/antpoltltsemiexpd-regular.otf'
p89
sg21
g22
sbag7
(g8
g9
NtRp90
(dp91
g12
g13
sg14
S'TeX Gyre Heros Cn'
p92
sg16
I400
sg17
g13
sg18
g13
sg19
S'/usr/share/fonts/texlive-tex-gyre/texgyreheroscn-regular.otf'
p93
sg21
g22
sbag7
(g8
g9
NtRp94
(dp95
g12
g38
sg14
S'Junicode'
p96
sg16
I400
sg17
g13
sg18
g13
sg19
S'/usr/share/fonts/texlive-junicode/Junicode-Italic.ttf'
p97
sg21
g22
sbag7
(g8
g9
NtRp98
(dp99
g12
g13
sg14
S'Latin Modern Mono Prop'
p100
sg16
I400
sg17
g13
sg18
g13
sg19
S'/usr/share/fonts/texlive-lm/lmmonoprop10-regular.otf'
p101
sg21
g22
sbag7
(g8
g9
NtRp102
(dp103
g12
g13
sg14
S'Semafor'
p104
sg16
I700
sg17
g13
sg18
g13
sg19
S'/usr/share/fonts/texlive-semaphor/smfpb10.otf'
p105
sg21
g22
sbag7
(g8
g9
NtRp106
(dp107
g12
g38
sg14
S'Antykwa Torunska Condensed'
p108
sg16
I200
sg17
g52
sg18
g13
sg19
S'/usr/share/fonts/texlive-antt/AntykwaTorunskaCondLight-Italic.otf'
p109
sg21
g22
sbag7
(g8
g9
NtRp110
(dp111
g12
g13
sg14
S'TeX Gyre Bonum'
p112
sg16
I700
sg17
g13
sg18
g13
sg19
S'/usr/share/fonts/texlive-tex-gyre/texgyrebonum-bold.otf'
p113
sg21
g22
sbag7
(g8
g9
NtRp114
(dp115
g12
g13
sg14
S'Antykwa Poltawskiego Light'
p116
sg16
I400
sg17
g52
sg18
g13
sg19
S'/usr/share/fonts/texlive-poltawski/antpoltltcond-regular.otf'
p117
sg21
g22
sbag7
(g8
g9
NtRp118
(dp119
g12
g38
sg14
S'Latin Modern Roman'
p120
sg16
I500
sg17
g13
sg18
g13
sg19
S'/usr/share/fonts/texlive-lm/lmroman7-italic.otf'
p121
sg21
g22
sbag7
(g8
g9
NtRp122
(dp123
g12
g13
sg14
S'Old Standard'
p124
sg16
I400
sg17
g13
sg18
g13
sg19
S'/usr/share/fonts/texlive-oldstandard/OldStandard-Regular.otf'
p125
sg21
g22
sbag7
(g8
g9
NtRp126
(dp127
g12
g13
sg14
S'TeX Gyre Heros'
p128
sg16
I400
sg17
g13
sg18
g13
sg19
S'/usr/share/fonts/texlive-tex-gyre/texgyreheros-regular.otf'
p129
sg21
g22
sbag7
(g8
g9
NtRp130
(dp131
g12
g13
sg14
S'Iwona Cond'
p132
sg16
I400
sg17
g52
sg18
g13
sg19
S'/usr/share/fonts/texlive-iwona/IwonaCond-Regular.otf'
p133
sg21
g22
sbag7
(g8
g9
NtRp134
(dp135
g12
g13
sg14
S'Antykwa Poltawskiego Light'
p136
sg16
I700
sg17
g52
sg18
g13
sg19
S'/usr/share/fonts/texlive-poltawski/antpoltltcond-bold.otf'
p137
sg21
g22
sbag7
(g8
g9
NtRp138
(dp139
g12
g13
sg14
S'Asana Math'
p140
sg16
I400
sg17
g13
sg18
g13
sg19
S'/usr/share/fonts/texlive-asana-math/Asana-Math.ttf'
p141
sg21
g22
sbag7
(g8
g9
NtRp142
(dp143
g12
g29
sg14
S'Latin Modern Sans'
p144
sg16
I700
sg17
g13
sg18
g13
sg19
S'/usr/share/fonts/texlive-lm/lmsans10-boldoblique.otf'
p145
sg21
g22
sbag7
(g8
g9
NtRp146
(dp147
g12
g29
sg14
S'CMU Bright'
p148
sg16
I700
sg17
g13
sg18
g13
sg19
S'/usr/share/fonts/texlive-cm-unicode/cmunbxo.otf'
p149
sg21
g22
sbag7
(g8
g9
NtRp150
(dp151
g12
g13
sg14
S'TeX Gyre Heros Cn'
p152
sg16
I700
sg17
g13
sg18
g13
sg19
S'/usr/share/fonts/texlive-tex-gyre/texgyreheroscn-bold.otf'
p153
sg21
g22
sbag7
(g8
g9
NtRp154
(dp155
g12
g13
sg14
S'Antykwa Poltawskiego Light'
p156
sg16
I400
sg17
g52
sg18
g13
sg19
S'/usr/share/fonts/texlive-poltawski/antpoltltsemicond-regular.otf'
p157
sg21
g22
sbag7
(g8
g9
NtRp158
(dp159
g12
g13
sg14
S'Iwona Cond Medium'
p160
sg16
I500
sg17
g52
sg18
g13
sg19
S'/usr/share/fonts/texlive-iwona/IwonaCondMedium-Regular.otf'
p161
sg21
g22
sbag7
(g8
g9
NtRp162
(dp163
g12
g13
sg14
S'Latin Modern Roman'
p164
sg16
I400
sg17
g13
sg18
g13
sg19
S'/usr/share/fonts/texlive-lm/lmroman8-regular.otf'
p165
sg21
g22
sbag7
(g8
g9
NtRp166
(dp167
g12
g38
sg14
S'Antykwa Poltawskiego Light'
p168
sg16
I700
sg17
g52
sg18
g13
sg19
S'/usr/share/fonts/texlive-poltawski/antpoltltcond-bolditalic.otf'
p169
sg21
g22
sbag7
(g8
g9
NtRp170
(dp171
g12
g13
sg14
S'FreeSans'
p172
sg16
I400
sg17
g13
sg18
g13
sg19
S'/usr/share/fonts/texlive-gnu-freefont/FreeSans.otf'
p173
sg21
g22
sbag7
(g8
g9
NtRp174
(dp175
g12
g38
sg14
S'Antykwa Poltawskiego Light'
p176
sg16
I700
sg17
g13
sg18
g13
sg19
S'/usr/share/fonts/texlive-poltawski/antpoltltexpd-bolditalic.otf'
p177
sg21
g22
sbag7
(g8
g9
NtRp178
(dp179
g12
g38
sg14
S'CMU Serif Upright Italic'
p180
sg16
I400
sg17
g13
sg18
g13
sg19
S'/usr/share/fonts/texlive-cm-unicode/cmunui.otf'
p181
sg21
g22
sbag7
(g8
g9
NtRp182
(dp183
g12
g13
sg14
S'Latin Modern Mono Slanted'
p184
sg16
I400
sg17
g13
sg18
g13
sg19
S'/usr/share/fonts/texlive-lm/lmmonoslant10-regular.otf'
p185
sg21
g22
sbag7
(g8
g9
NtRp186
(dp187
g12
g13
sg14
S'SkakNewFigurine'
p188
sg16
I700
sg17
g13
sg18
g13
sg19
S'/usr/share/fonts/texlive-skaknew/SkakNew-FigurineBold.otf'
p189
sg21
g22
sbag7
(g8
g9
NtRp190
(dp191
g12
g13
sg14
S'FreeSerif'
p192
sg16
I700
sg17
g13
sg18
g13
sg19
S'/usr/share/fonts/texlive-gnu-freefont/FreeSerifBold.otf'
p193
sg21
g22
sbag7
(g8
g9
NtRp194
(dp195
g12
g29
sg14
S'DejaVu Sans Mono'
p196
sg16
I700
sg17
g13
sg18
g13
sg19
S'/usr/share/fonts/texlive-dejavu/DejaVuSansMono-BoldOblique.ttf'
p197
sg21
g22
sbag7
(g8
g9
NtRp198
(dp199
g12
g13
sg14
S'DejaVu Serif'
p200
sg16
I700
sg17
g52
sg18
g13
sg19
S'/usr/share/fonts/texlive-dejavu/DejaVuSerifCondensed-Bold.ttf'
p201
sg21
g22
sbag7
(g8
g9
NtRp202
(dp203
g12
g13
sg14
S'STIXIntegralsD'
p204
sg16
I700
sg17
g13
sg18
g13
sg19
S'/usr/share/fonts/texlive-stix/STIXIntDBol.otf'
p205
sg21
g22
sbag7
(g8
g9
NtRp206
(dp207
g12
g38
sg14
S'Iwona Heavy'
p208
sg16
I800
sg17
g13
sg18
g13
sg19
S'/usr/share/fonts/texlive-iwona/IwonaHeavy-Italic.otf'
p209
sg21
g22
sbag7
(g8
g9
NtRp210
(dp211
g12
g13
sg14
S'CMU Concrete'
p212
sg16
I700
sg17
g13
sg18
g13
sg19
S'/usr/share/fonts/texlive-cm-unicode/cmunobx.otf'
p213
sg21
g22
sbag7
(g8
g9
NtRp214
(dp215
g12
g13
sg14
S'Georgia'
p216
sg16
I400
sg17
g13
sg18
g13
sg19
S'/usr/share/fonts/msttcore/georgia.ttf'
p217
sg21
g22
sbag7
(g8
g9
NtRp218
(dp219
g12
g13
sg14
S'Antykwa Poltawskiego'
p220
sg16
I700
sg17
g13
sg18
g13
sg19
S'/usr/share/fonts/texlive-poltawski/antpolt-bold.otf'
p221
sg21
g22
sbag7
(g8
g9
NtRp222
(dp223
g12
g13
sg14
S'Antykwa Poltawskiego'
p224
sg16
I400
sg17
g13
sg18
g13
sg19
S'/usr/share/fonts/texlive-poltawski/antpoltexpd-regular.otf'
p225
sg21
g22
sbag7
(g8
g9
NtRp226
(dp227
g12
g13
sg14
S'TeX Gyre Adventor'
p228
sg16
I400
sg17
g13
sg18
g13
sg19
S'/usr/share/fonts/texlive-tex-gyre/texgyreadventor-regular.otf'
p229
sg21
g22
sbag7
(g8
g9
NtRp230
(dp231
g12
g38
sg14
S'Linux Libertine Slanted O'
p232
sg16
I700
sg17
g13
sg18
g13
sg19
S'/usr/share/fonts/texlive-libertine/fxlbo.otf'
p233
sg21
g22
sbag7
(g8
g9
NtRp234
(dp235
g12
g38
sg14
S'Droid Serif'
p236
sg16
I700
sg17
g13
sg18
g13
sg19
S'/usr/share/fonts/texlive-droid/DroidSerif-BoldItalic.ttf'
p237
sg21
g22
sbag7
(g8
g9
NtRp238
(dp239
g12
g13
sg14
S'Antykwa Poltawskiego'
p240
sg16
I700
sg17
g13
sg18
g13
sg19
S'/usr/share/fonts/texlive-poltawski/antpoltexpd-bold.otf'
p241
sg21
g22
sbag7
(g8
g9
NtRp242
(dp243
g12
g13
sg14
S'STIXIntegralsUp'
p244
sg16
I400
sg17
g13
sg18
g13
sg19
S'/usr/share/fonts/texlive-stix/STIXIntUpReg.otf'
p245
sg21
g22
sbag7
(g8
g9
NtRp246
(dp247
g12
g13
sg14
S'Open Sans'
p248
sg16
I700
sg17
g13
sg18
g13
sg19
S'/usr/share/fonts/texlive-opensans/OpenSans-ExtraBold.ttf'
p249
sg21
g22
sbag7
(g8
g9
NtRp250
(dp251
g12
g38
sg14
S'TeX Gyre Heros Cn'
p252
sg16
I700
sg17
g13
sg18
g13
sg19
S'/usr/share/fonts/texlive-tex-gyre/texgyreheroscn-bolditalic.otf'
p253
sg21
g22
sbag7
(g8
g9
NtRp254
(dp255
g12
g13
sg14
S'Inconsolata'
p256
sg16
I400
sg17
g13
sg18
g13
sg19
S'/usr/share/fonts/texlive-inconsolata/Inconsolata.otf'
p257
sg21
g22
sbag7
(g8
g9
NtRp258
(dp259
g12
g29
sg14
S'DejaVu Sans'
p260
sg16
I700
sg17
g52
sg18
g13
sg19
S'/usr/share/fonts/texlive-dejavu/DejaVuSansCondensed-BoldOblique.ttf'
p261
sg21
g22
sbag7
(g8
g9
NtRp262
(dp263
g12
g38
sg14
S'Courier New'
p264
sg16
I700
sg17
g13
sg18
g13
sg19
S'/usr/share/fonts/msttcore/courbi.ttf'
p265
sg21
g22
sbag7
(g8
g9
NtRp266
(dp267
g12
g38
sg14
S'DejaVu Serif'
p268
sg16
I400
sg17
g13
sg18
g13
sg19
S'/usr/share/fonts/dejavu/DejaVuSerif-Italic.ttf'
p269
sg21
g22
sbag7
(g8
g9
NtRp270
(dp271
g12
g13
sg14
S'GFS Bodoni'
p272
sg16
I700
sg17
g13
sg18
g13
sg19
S'/usr/share/fonts/texlive-gfsbodoni/GFSBodoniBold.otf'
p273
sg21
g22
sbag7
(g8
g9
NtRp274
(dp275
g12
g38
sg14
S'Antykwa Poltawskiego'
p276
sg16
I400
sg17
g52
sg18
g13
sg19
S'/usr/share/fonts/texlive-poltawski/antpoltsemicond-italic.otf'
p277
sg21
g22
sbag7
(g8
g9
NtRp278
(dp279
g12
g13
sg14
S'Verdana'
p280
sg16
I400
sg17
g13
sg18
g13
sg19
S'/usr/share/fonts/msttcore/verdana.ttf'
p281
sg21
g22
sbag7
(g8
g9
NtRp282
(dp283
g12
g13
sg14
S'DejaVu Sans'
p284
sg16
I700
sg17
g52
sg18
g13
sg19
S'/usr/share/fonts/texlive-dejavu/DejaVuSansCondensed-Bold.ttf'
p285
sg21
g22
sbag7
(g8
g9
NtRp286
(dp287
g12
g38
sg14
S'XITS'
p288
sg16
I700
sg17
g13
sg18
g13
sg19
S'/usr/share/fonts/texlive-xits/xits-bolditalic.otf'
p289
sg21
g22
sbag7
(g8
g9
NtRp290
(dp291
g12
g38
sg14
S'Linux Biolinum Outline O'
p292
sg16
I400
sg17
g13
sg18
g13
sg19
S'/usr/share/fonts/texlive-libertine/fxboi.otf'
p293
sg21
g22
sbag7
(g8
g9
NtRp294
(dp295
g12
g13
sg14
S'Iwona Cond'
p296
sg16
I700
sg17
g52
sg18
g13
sg19
S'/usr/share/fonts/texlive-iwona/IwonaCond-Bold.otf'
p297
sg21
g22
sbag7
(g8
g9
NtRp298
(dp299
g12
g13
sg14
S'Latin Modern Roman'
p300
sg16
I700
sg17
g13
sg18
g13
sg19
S'/usr/share/fonts/texlive-lm/lmroman10-bold.otf'
p301
sg21
g22
sbag7
(g8
g9
NtRp302
(dp303
g12
g38
sg14
S'Arial'
p304
sg16
I700
sg17
g13
sg18
g13
sg19
S'/usr/share/fonts/msttcore/arialbi.ttf'
p305
sg21
g22
sbag7
(g8
g9
NtRp306
(dp307
g12
g38
sg14
S'TeX Gyre Heros'
p308
sg16
I700
sg17
g13
sg18
g13
sg19
S'/usr/share/fonts/texlive-tex-gyre/texgyreheros-bolditalic.otf'
p309
sg21
g22
sbag7
(g8
g9
NtRp310
(dp311
g12
g13
sg14
S'Latin Modern Roman Slanted'
p312
sg16
I400
sg17
g13
sg18
g13
sg19
S'/usr/share/fonts/texlive-lm/lmromanslant8-regular.otf'
p313
sg21
g22
sbag7
(g8
g9
NtRp314
(dp315
g12
g38
sg14
S'Antykwa Poltawskiego'
p316
sg16
I400
sg17
g13
sg18
g13
sg19
S'/usr/share/fonts/texlive-poltawski/antpoltsemiexpd-italic.otf'
p317
sg21
g22
sbag7
(g8
g9
NtRp318
(dp319
g12
g13
sg14
S'STIXIntegralsUp'
p320
sg16
I700
sg17
g13
sg18
g13
sg19
S'/usr/share/fonts/texlive-stix/STIXIntUpBol.otf'
p321
sg21
g22
sbag7
(g8
g9
NtRp322
(dp323
g12
g38
sg14
S'Semafor'
p324
sg16
I700
sg17
g13
sg18
g13
sg19
S'/usr/share/fonts/texlive-semaphor/smfpbsl10.otf'
p325
sg21
g22
sbag7
(g8
g9
NtRp326
(dp327
g12
g13
sg14
S'Kurier Cond Medium'
p328
sg16
I500
sg17
g52
sg18
g13
sg19
S'/usr/share/fonts/texlive-kurier/KurierCondMedium-Regular.otf'
p329
sg21
g22
sbag7
(g8
g9
NtRp330
(dp331
g12
g38
sg14
S'Iwona Cond'
p332
sg16
I700
sg17
g52
sg18
g13
sg19
S'/usr/share/fonts/texlive-iwona/IwonaCond-BoldItalic.otf'
p333
sg21
g22
sbag7
(g8
g9
NtRp334
(dp335
g12
g13
sg14
S'GFS Neohellenic'
p336
sg16
I700
sg17
g13
sg18
g13
sg19
S'/usr/share/fonts/texlive-gfsneohellenic/GFSNeohellenicBold.otf'
p337
sg21
g22
sbag7
(g8
g9
NtRp338
(dp339
g12
g13
sg14
S'CMU Concrete'
p340
sg16
I500
sg17
g13
sg18
g13
sg19
S'/usr/share/fonts/texlive-cm-unicode/cmunorm.otf'
p341
sg21
g22
sbag7
(g8
g9
NtRp342
(dp343
g12
g13
sg14
S'Open Sans'
p344
sg16
I200
sg17
g52
sg18
g13
sg19
S'/usr/share/fonts/texlive-opensans/OpenSans-CondLight.ttf'
p345
sg21
g22
sbag7
(g8
g9
NtRp346
(dp347
g12
g38
sg14
S'Kurier'
p348
sg16
I700
sg17
g13
sg18
g13
sg19
S'/usr/share/fonts/texlive-kurier/Kurier-BoldItalic.otf'
p349
sg21
g22
sbag7
(g8
g9
NtRp350
(dp351
g12
g13
sg14
S'blex'
p352
sg16
I400
sg17
g13
sg18
g13
sg19
S'/usr/share/fonts/texlive-belleek/blex.ttf'
p353
sg21
g22
sbag7
(g8
g9
NtRp354
(dp355
g12
g13
sg14
S'STIXIntegralsUpSm'
p356
sg16
I700
sg17
g13
sg18
g13
sg19
S'/usr/share/fonts/texlive-stix/STIXIntUpSmBol.otf'
p357
sg21
g22
sbag7
(g8
g9
NtRp358
(dp359
g12
g38
sg14
S'FreeSerif'
p360
sg16
I700
sg17
g13
sg18
g13
sg19
S'/usr/share/fonts/texlive-gnu-freefont/FreeSerifBoldItalic.otf'
p361
sg21
g22
sbag7
(g8
g9
NtRp362
(dp363
g12
g13
sg14
S'Antykwa Torunska'
p364
sg16
I200
sg17
g13
sg18
g13
sg19
S'/usr/share/fonts/texlive-antt/AntykwaTorunskaLight-Regular.otf'
p365
sg21
g22
sbag7
(g8
g9
NtRp366
(dp367
g12
g13
sg14
S'Latin Modern Mono Prop Light'
p368
sg16
I400
sg17
g13
sg18
g13
sg19
S'/usr/share/fonts/texlive-lm/lmmonoproplt10-regular.otf'
p369
sg21
g22
sbag7
(g8
g9
NtRp370
(dp371
g12
g13
sg14
S'Latin Modern Sans'
p372
sg16
I400
sg17
g13
sg18
g13
sg19
S'/usr/share/fonts/texlive-lm/lmsans8-regular.otf'
p373
sg21
g22
sbag7
(g8
g9
NtRp374
(dp375
g12
g29
sg14
S'Latin Modern Mono Light Cond'
p376
sg16
I200
sg17
g52
sg18
g13
sg19
S'/usr/share/fonts/texlive-lm/lmmonoltcond10-oblique.otf'
p377
sg21
g22
sbag7
(g8
g9
NtRp378
(dp379
g12
g38
sg14
S'Kurier Cond Light'
p380
sg16
I200
sg17
g52
sg18
g13
sg19
S'/usr/share/fonts/texlive-kurier/KurierCondLight-Italic.otf'
p381
sg21
g22
sbag7
(g8
g9
NtRp382
(dp383
g12
g38
sg14
S'TeX Gyre Schola'
p384
sg16
I400
sg17
g13
sg18
g13
sg19
S'/usr/share/fonts/texlive-tex-gyre/texgyreschola-italic.otf'
p385
sg21
g22
sbag7
(g8
g9
NtRp386
(dp387
g12
g13
sg14
S'MnSymbol'
p388
sg16
I700
sg17
g13
sg18
g13
sg19
S'/usr/share/fonts/texlive-mnsymbol/MnSymbol-Bold7.otf'
p389
sg21
g22
sbag7
(g8
g9
NtRp390
(dp391
g12
g38
sg14
S'Semafor'
p392
sg16
I700
sg17
g13
sg18
g13
sg19
S'/usr/share/fonts/texlive-semaphor/smfebsl10.otf'
p393
sg21
g22
sbag7
(g8
g9
NtRp394
(dp395
g12
g29
sg14
S'DejaVu Sans'
p396
sg16
I700
sg17
g13
sg18
g13
sg19
S'/usr/share/fonts/dejavu/DejaVuSans-BoldOblique.ttf'
p397
sg21
g22
sbag7
(g8
g9
NtRp398
(dp399
g12
g29
sg14
S'Latin Modern Sans'
p400
sg16
I400
sg17
g13
sg18
g13
sg19
S'/usr/share/fonts/texlive-lm/lmsans8-oblique.otf'
p401
sg21
g22
sbag7
(g8
g9
NtRp402
(dp403
g12
g13
sg14
S'Arial'
p404
sg16
I400
sg17
g13
sg18
g13
sg19
S'/usr/share/fonts/msttcore/arial.ttf'
p405
sg21
g22
sbag7
(g8
g9
NtRp406
(dp407
g12
g13
sg14
S'Courier New'
p408
sg16
I400
sg17
g13
sg18
g13
sg19
S'/usr/share/fonts/msttcore/cour.ttf'
p409
sg21
g22
sbag7
(g8
g9
NtRp410
(dp411
g12
g38
sg14
S'Antykwa Poltawskiego Light'
p412
sg16
I200
sg17
g52
sg18
g13
sg19
S'/usr/share/fonts/texlive-poltawski/antpoltltcond-italic.otf'
p413
sg21
g22
sbag7
(g8
g9
NtRp414
(dp415
g12
g13
sg14
S'ocrb9'
p416
sg16
I400
sg17
g13
sg18
g13
sg19
S'/usr/share/fonts/texlive-ocr-b-outline/ocrb9.otf'
p417
sg21
g22
sbag7
(g8
g9
NtRp418
(dp419
g12
g13
sg14
S'CMU Bright'
p420
sg16
I700
sg17
g13
sg18
g13
sg19
S'/usr/share/fonts/texlive-cm-unicode/cmunbsr.otf'
p421
sg21
g22
sbag7
(g8
g9
NtRp422
(dp423
g12
g38
sg14
S'Linux Biolinum Slanted O'
p424
sg16
I400
sg17
g13
sg18
g13
sg19
S'/usr/share/fonts/texlive-libertine/fxbro.otf'
p425
sg21
g22
sbag7
(g8
g9
NtRp426
(dp427
g12
g38
sg14
S'Kurier Heavy'
p428
sg16
I800
sg17
g13
sg18
g13
sg19
S'/usr/share/fonts/texlive-kurier/KurierHeavy-Italic.otf'
p429
sg21
g22
sbag7
(g8
g9
NtRp430
(dp431
g12
g38
sg14
S'Trebuchet MS'
p432
sg16
I400
sg17
g13
sg18
g13
sg19
S'/usr/share/fonts/msttcore/trebucit.ttf'
p433
sg21
g22
sbag7
(g8
g9
NtRp434
(dp435
g12
g13
sg14
S'FreeSerif'
p436
sg16
I400
sg17
g13
sg18
g13
sg19
S'/usr/share/fonts/texlive-gnu-freefont/FreeSerif.otf'
p437
sg21
g22
sbag7
(g8
g9
NtRp438
(dp439
g12
g13
sg14
S'Latin Modern Sans'
p440
sg16
I400
sg17
g13
sg18
g13
sg19
S'/usr/share/fonts/texlive-lm/lmsans10-regular.otf'
p441
sg21
g22
sbag7
(g8
g9
NtRp442
(dp443
g12
g13
sg14
S'rblmi'
p444
sg16
I400
sg17
g13
sg18
g13
sg19
S'/usr/share/fonts/texlive-belleek/rblmi.ttf'
p445
sg21
g22
sbag7
(g8
g9
NtRp446
(dp447
g12
g13
sg14
S'Antykwa Poltawskiego'
p448
sg16
I700
sg17
g52
sg18
g13
sg19
S'/usr/share/fonts/texlive-poltawski/antpoltcond-bold.otf'
p449
sg21
g22
sbag7
(g8
g9
NtRp450
(dp451
g12
g13
sg14
S'Linux Biolinum Shadow O'
p452
sg16
I400
sg17
g13
sg18
g13
sg19
S'/usr/share/fonts/texlive-libertine/fxbs.otf'
p453
sg21
g22
sbag7
(g8
g9
NtRp454
(dp455
g12
g38
sg14
S'Courier New'
p456
sg16
I400
sg17
g13
sg18
g13
sg19
S'/usr/share/fonts/msttcore/couri.ttf'
p457
sg21
g22
sbag7
(g8
g9
NtRp458
(dp459
g12
g38
sg14
S'Latin Modern Roman'
p460
sg16
I500
sg17
g13
sg18
g13
sg19
S'/usr/share/fonts/texlive-lm/lmroman12-italic.otf'
p461
sg21
g22
sbag7
(g8
g9
NtRp462
(dp463
g12
g29
sg14
S'Latin Modern Mono Prop Light'
p464
sg16
I700
sg17
g13
sg18
g13
sg19
S'/usr/share/fonts/texlive-lm/lmmonoproplt10-boldoblique.otf'
p465
sg21
g22
sbag7
(g8
g9
NtRp466
(dp467
g12
g38
sg14
S'Antykwa Poltawskiego'
p468
sg16
I700
sg17
g52
sg18
g13
sg19
S'/usr/share/fonts/texlive-poltawski/antpoltcond-bolditalic.otf'
p469
sg21
g22
sbag7
(g8
g9
NtRp470
(dp471
g12
g38
sg14
S'Antykwa Poltawskiego'
p472
sg16
I700
sg17
g13
sg18
g13
sg19
S'/usr/share/fonts/texlive-poltawski/antpoltexpd-bolditalic.otf'
p473
sg21
g22
sbag7
(g8
g9
NtRp474
(dp475
g12
g13
sg14
S'STIXIntegralsUpSm'
p476
sg16
I400
sg17
g13
sg18
g13
sg19
S'/usr/share/fonts/texlive-stix/STIXIntUpSmReg.otf'
p477
sg21
g22
sbag7
(g8
g9
NtRp478
(dp479
g12
g29
sg14
S'FreeSans'
p480
sg16
I400
sg17
g13
sg18
g13
sg19
S'/usr/share/fonts/texlive-gnu-freefont/FreeSansOblique.ttf'
p481
sg21
g22
sbag7
(g8
g9
NtRp482
(dp483
g12
g38
sg14
S'Open Sans'
p484
sg16
I400
sg17
g13
sg18
g13
sg19
S'/usr/share/fonts/texlive-opensans/OpenSans-Italic.ttf'
p485
sg21
g22
sbag7
(g8
g9
NtRp486
(dp487
g12
g38
sg14
S'Punk Nova'
p488
sg16
I700
sg17
g13
sg18
g13
sg19
S'/usr/share/fonts/texlive-punknova/punknova-boldslanted.otf'
p489
sg21
g22
sbag7
(g8
g9
NtRp490
(dp491
g12
g38
sg14
S'Iwona'
p492
sg16
I400
sg17
g13
sg18
g13
sg19
S'/usr/share/fonts/texlive-iwona/Iwona-Italic.otf'
p493
sg21
g22
sbag7
(g8
g9
NtRp494
(dp495
g12
g13
sg14
S'Trebuchet MS'
p496
sg16
I400
sg17
g13
sg18
g13
sg19
S'/usr/share/fonts/msttcore/trebuc.ttf'
p497
sg21
g22
sbag7
(g8
g9
NtRp498
(dp499
g12
g29
sg14
S'Latin Modern Mono Light'
p500
sg16
I200
sg17
g13
sg18
g13
sg19
S'/usr/share/fonts/texlive-lm/lmmonolt10-oblique.otf'
p501
sg21
g22
sbag7
(g8
g9
NtRp502
(dp503
g12
g13
sg14
S'STIXIntegralsSm'
p504
sg16
I700
sg17
g13
sg18
g13
sg19
S'/usr/share/fonts/texlive-stix/STIXIntSmBol.otf'
p505
sg21
g22
sbag7
(g8
g9
NtRp506
(dp507
g12
g13
sg14
S'Latin Modern Sans'
p508
sg16
I400
sg17
g13
sg18
g13
sg19
S'/usr/share/fonts/texlive-lm/lmsans12-regular.otf'
p509
sg21
g22
sbag7
(g8
g9
NtRp510
(dp511
g12
g13
sg14
S'Latin Modern Sans Quotation'
p512
sg16
I400
sg17
g13
sg18
g13
sg19
S'/usr/share/fonts/texlive-lm/lmsansquot8-regular.otf'
p513
sg21
g22
sbag7
(g8
g9
NtRp514
(dp515
g12
g38
sg14
S'Lato'
p516
sg16
I900
sg17
g13
sg18
g13
sg19
S'/usr/share/fonts/texlive-lato/Lato-BlackItalic.ttf'
p517
sg21
g22
sbag7
(g8
g9
NtRp518
(dp519
g12
g38
sg14
S'CMU Typewriter Text Variable Width'
p520
sg16
I400
sg17
g13
sg18
g13
sg19
S'/usr/share/fonts/texlive-cm-unicode/cmunvi.otf'
p521
sg21
g22
sbag7
(g8
g9
NtRp522
(dp523
g12
g13
sg14
S'Antykwa Torunska Condensed'
p524
sg16
I400
sg17
g52
sg18
g13
sg19
S'/usr/share/fonts/texlive-antt/AntykwaTorunskaCond-Regular.otf'
p525
sg21
g22
sbag7
(g8
g9
NtRp526
(dp527
g12
g13
sg14
S'FreeMono'
p528
sg16
I700
sg17
g13
sg18
g13
sg19
S'/usr/share/fonts/texlive-gnu-freefont/FreeMonoBold.otf'
p529
sg21
g22
sbag7
(g8
g9
NtRp530
(dp531
g12
g13
sg14
S'Latin Modern Mono'
p532
sg16
I400
sg17
g13
sg18
g13
sg19
S'/usr/share/fonts/texlive-lm/lmmono9-regular.otf'
p533
sg21
g22
sbag7
(g8
g9
NtRp534
(dp535
g12
g38
sg14
S'TeX Gyre Bonum'
p536
sg16
I700
sg17
g13
sg18
g13
sg19
S'/usr/share/fonts/texlive-tex-gyre/texgyrebonum-bolditalic.otf'
p537
sg21
g22
sbag7
(g8
g9
NtRp538
(dp539
g12
g38
sg14
S'TeX Gyre Bonum'
p540
sg16
I400
sg17
g13
sg18
g13
sg19
S'/usr/share/fonts/texlive-tex-gyre/texgyrebonum-italic.otf'
p541
sg21
g22
sbag7
(g8
g9
NtRp542
(dp543
g12
g13
sg14
S'Latin Modern Mono'
p544
sg16
I400
sg17
g13
sg18
g13
sg19
S'/usr/share/fonts/texlive-lm/lmmono8-regular.otf'
p545
sg21
g22
sbag7
(g8
g9
NtRp546
(dp547
g12
g13
sg14
S'Latin Modern Roman'
p548
sg16
I700
sg17
g13
sg18
g13
sg19
S'/usr/share/fonts/texlive-lm/lmroman8-bold.otf'
p549
sg21
g22
sbag7
(g8
g9
NtRp550
(dp551
g12
g38
sg14
S'Iwona Cond Light'
p552
sg16
I200
sg17
g52
sg18
g13
sg19
S'/usr/share/fonts/texlive-iwona/IwonaCondLight-Italic.otf'
p553
sg21
g22
sbag7
(g8
g9
NtRp554
(dp555
g12
g13
sg14
S'FreeSans'
p556
sg16
I400
sg17
g13
sg18
g13
sg19
S'/usr/share/fonts/texlive-gnu-freefont/FreeSans.ttf'
p557
sg21
g22
sbag7
(g8
g9
NtRp558
(dp559
g12
g38
sg14
S'PT Serif'
p560
sg16
I400
sg17
g13
sg18
g13
sg19
S'/usr/share/fonts/texlive-paratype/PTF56F.ttf'
p561
sg21
g22
sbag7
(g8
g9
NtRp562
(dp563
g12
g13
sg14
S'CMU Typewriter Text'
p564
sg16
I200
sg17
g13
sg18
g13
sg19
S'/usr/share/fonts/texlive-cm-unicode/cmunbtl.otf'
p565
sg21
g22
sbag7
(g8
g9
NtRp566
(dp567
g12
g13
sg14
S'Antykwa Torunska Condensed'
p568
sg16
I700
sg17
g52
sg18
g13
sg19
S'/usr/share/fonts/texlive-antt/AntykwaTorunskaCond-Bold.otf'
p569
sg21
g22
sbag7
(g8
g9
NtRp570
(dp571
g12
g13
sg14
S'PT Sans'
p572
sg16
I700
sg17
g13
sg18
g13
sg19
S'/usr/share/fonts/texlive-paratype/PTS75F.ttf'
p573
sg21
g22
sbag7
(g8
g9
NtRp574
(dp575
g12
g38
sg14
S'DejaVu Serif'
p576
sg16
I700
sg17
g52
sg18
g13
sg19
S'/usr/share/fonts/dejavu/DejaVuSerifCondensed-BoldItalic.ttf'
p577
sg21
g22
sbag7
(g8
g9
NtRp578
(dp579
g12
g29
sg14
S'Latin Modern Mono Prop'
p580
sg16
I400
sg17
g13
sg18
g13
sg19
S'/usr/share/fonts/texlive-lm/lmmonoprop10-oblique.otf'
p581
sg21
g22
sbag7
(g8
g9
NtRp582
(dp583
g12
g38
sg14
S'Gentium Basic'
p584
sg16
I700
sg17
g13
sg18
g13
sg19
S'/usr/share/fonts/texlive-gentium/GenBasBI.ttf'
p585
sg21
g22
sbag7
(g8
g9
NtRp586
(dp587
g12
g38
sg14
S'Arial'
p588
sg16
I400
sg17
g13
sg18
g13
sg19
S'/usr/share/fonts/msttcore/ariali.ttf'
p589
sg21
g22
sbag7
(g8
g9
NtRp590
(dp591
g12
g38
sg14
S'Linux Biolinum Slanted O'
p592
sg16
I700
sg17
g13
sg18
g13
sg19
S'/usr/share/fonts/texlive-libertine/fxbbo.otf'
p593
sg21
g22
sbag7
(g8
g9
NtRp594
(dp595
g12
g13
sg14
S'Latin Modern Roman'
p596
sg16
I700
sg17
g13
sg18
g13
sg19
S'/usr/share/fonts/texlive-lm/lmroman12-bold.otf'
p597
sg21
g22
sbag7
(g8
g9
NtRp598
(dp599
g12
g13
sg14
S'DejaVu Sans'
p600
sg16
I200
sg17
g13
sg18
g13
sg19
S'/usr/share/fonts/texlive-dejavu/DejaVuSans-ExtraLight.ttf'
p601
sg21
g22
sbag7
(g8
g9
NtRp602
(dp603
g12
g13
sg14
S'Latin Modern Roman'
p604
sg16
I400
sg17
g13
sg18
g13
sg19
S'/usr/share/fonts/texlive-lm/lmroman7-regular.otf'
p605
sg21
g22
sbag7
(g8
g9
NtRp606
(dp607
g12
g38
sg14
S'Georgia'
p608
sg16
I700
sg17
g13
sg18
g13
sg19
S'/usr/share/fonts/msttcore/georgiaz.ttf'
p609
sg21
g22
sbag7
(g8
g9
NtRp610
(dp611
g12
g13
sg14
S'Kurier'
p612
sg16
I700
sg17
g13
sg18
g13
sg19
S'/usr/share/fonts/texlive-kurier/Kurier-Bold.otf'
p613
sg21
g22
sbag7
(g8
g9
NtRp614
(dp615
g12
g13
sg14
S'MnSymbol'
p616
sg16
I400
sg17
g13
sg18
g13
sg19
S'/usr/share/fonts/texlive-mnsymbol/MnSymbol12.otf'
p617
sg21
g22
sbag7
(g8
g9
NtRp618
(dp619
g12
g13
sg14
S'CMU Serif'
p620
sg16
I700
sg17
g13
sg18
g13
sg19
S'/usr/share/fonts/texlive-cm-unicode/cmunbx.otf'
p621
sg21
g22
sbag7
(g8
g9
NtRp622
(dp623
g12
g13
sg14
S'Kurier Cond'
p624
sg16
I400
sg17
g52
sg18
g13
sg19
S'/usr/share/fonts/texlive-kurier/KurierCond-Regular.otf'
p625
sg21
g22
sbag7
(g8
g9
NtRp626
(dp627
g12
g13
sg14
S'Linux Libertine O'
p628
sg16
I700
sg17
g13
sg18
g13
sg19
S'/usr/share/fonts/texlive-libertine/fxlb.otf'
p629
sg21
g22
sbag7
(g8
g9
NtRp630
(dp631
g12
g29
sg14
S'CMU Typewriter Text'
p632
sg16
I200
sg17
g13
sg18
g13
sg19
S'/usr/share/fonts/texlive-cm-unicode/cmunbto.otf'
p633
sg21
g22
sbag7
(g8
g9
NtRp634
(dp635
g12
g38
sg14
S'TeX Gyre Adventor'
p636
sg16
I400
sg17
g13
sg18
g13
sg19
S'/usr/share/fonts/texlive-tex-gyre/texgyreadventor-italic.otf'
p637
sg21
g22
sbag7
(g8
g9
NtRp638
(dp639
g12
g38
sg14
S'Cyklop'
p640
sg16
I400
sg17
g13
sg18
g13
sg19
S'/usr/share/fonts/texlive-cyklop/cyklop-italic.otf'
p641
sg21
g22
sbag7
(g8
g9
NtRp642
(dp643
g12
g13
sg14
S'DejaVu Sans'
p644
sg16
I400
sg17
g52
sg18
g13
sg19
S'/usr/share/fonts/dejavu/DejaVuSansCondensed.ttf'
p645
sg21
g22
sbag7
(g8
g9
NtRp646
(dp647
g12
g13
sg14
S'Latin Modern Roman'
p648
sg16
I400
sg17
g13
sg18
g13
sg19
S'/usr/share/fonts/texlive-lm/lmroman12-regular.otf'
p649
sg21
g22
sbag7
(g8
g9
NtRp650
(dp651
g12
g13
sg14
S'TeX Gyre Bonum'
p652
sg16
I400
sg17
g13
sg18
g13
sg19
S'/usr/share/fonts/texlive-tex-gyre/texgyrebonum-regular.otf'
p653
sg21
g22
sbag7
(g8
g9
NtRp654
(dp655
g12
g13
sg14
S'GentiumAlt'
p656
sg16
I400
sg17
g13
sg18
g13
sg19
S'/usr/share/fonts/texlive-gentium/GenAR102.ttf'
p657
sg21
g22
sbag7
(g8
g9
NtRp658
(dp659
g12
g29
sg14
S'DejaVu Sans'
p660
sg16
I400
sg17
g13
sg18
g13
sg19
S'/usr/share/fonts/texlive-dejavu/DejaVuSans-Oblique.ttf'
p661
sg21
g22
sbag7
(g8
g9
NtRp662
(dp663
g12
g38
sg14
S'STIXNonUnicode'
p664
sg16
I700
sg17
g13
sg18
g13
sg19
S'/usr/share/fonts/texlive-stix/STIXNonUniBolIta.otf'
p665
sg21
g22
sbag7
(g8
g9
NtRp666
(dp667
g12
g13
sg14
S'Linux Libertine Initials O'
p668
sg16
I400
sg17
g13
sg18
g13
sg19
S'/usr/share/fonts/texlive-libertine/fxli.otf'
p669
sg21
g22
sbag7
(g8
g9
NtRp670
(dp671
g12
g29
sg14
S'DejaVu Sans'
p672
sg16
I400
sg17
g52
sg18
g13
sg19
S'/usr/share/fonts/dejavu/DejaVuSansCondensed-Oblique.ttf'
p673
sg21
g22
sbag7
(g8
g9
NtRp674
(dp675
g12
g13
sg14
S'Antykwa Poltawskiego Light'
p676
sg16
I400
sg17
g13
sg18
g13
sg19
S'/usr/share/fonts/texlive-poltawski/antpoltltexpd-regular.otf'
p677
sg21
g22
sbag7
(g8
g9
NtRp678
(dp679
g12
g38
sg14
S'TeX Gyre Heros'
p680
sg16
I400
sg17
g13
sg18
g13
sg19
S'/usr/share/fonts/texlive-tex-gyre/texgyreheros-italic.otf'
p681
sg21
g22
sbag7
(g8
g9
NtRp682
(dp683
g12
g38
sg14
S'Antykwa Poltawskiego'
p684
sg16
I400
sg17
g52
sg18
g13
sg19
S'/usr/share/fonts/texlive-poltawski/antpoltcond-italic.otf'
p685
sg21
g22
sbag7
(g8
g9
NtRp686
(dp687
g12
g38
sg14
S'CMU Concrete'
p688
sg16
I700
sg17
g13
sg18
g13
sg19
S'/usr/share/fonts/texlive-cm-unicode/cmunobi.otf'
p689
sg21
g22
sbag7
(g8
g9
NtRp690
(dp691
g12
g13
sg14
S'Linux Biolinum O'
p692
sg16
I400
sg17
g13
sg18
g13
sg19
S'/usr/share/fonts/texlive-libertine/fxbr.otf'
p693
sg21
g22
sbag7
(g8
g9
NtRp694
(dp695
g12
g38
sg14
S'Semafor'
p696
sg16
I700
sg17
g13
sg18
g13
sg19
S'/usr/share/fonts/texlive-semaphor/smfbsl10.otf'
p697
sg21
g22
sbag7
(g8
g9
NtRp698
(dp699
g12
g13
sg14
S'CMU Sans Serif'
p700
sg16
I400
sg17
g13
sg18
g13
sg19
S'/usr/share/fonts/texlive-cm-unicode/cmunss.otf'
p701
sg21
g22
sbag7
(g8
g9
NtRp702
(dp703
g12
g13
sg14
S'Tahoma'
p704
sg16
I400
sg17
g13
sg18
g13
sg19
S'/usr/share/fonts/msttcore/tahoma.ttf'
p705
sg21
g22
sbag7
(g8
g9
NtRp706
(dp707
g12
g13
sg14
S'Latin Modern Mono'
p708
sg16
I400
sg17
g13
sg18
g13
sg19
S'/usr/share/fonts/texlive-lm/lmmono12-regular.otf'
p709
sg21
g22
sbag7
(g8
g9
NtRp710
(dp711
g12
g13
sg14
S'Semafor'
p712
sg16
I400
sg17
g13
sg18
g13
sg19
S'/usr/share/fonts/texlive-semaphor/smfpr10.otf'
p713
sg21
g22
sbag7
(g8
g9
NtRp714
(dp715
g12
g13
sg14
S'Kurier Cond'
p716
sg16
I700
sg17
g52
sg18
g13
sg19
S'/usr/share/fonts/texlive-kurier/KurierCond-Bold.otf'
p717
sg21
g22
sbag7
(g8
g9
NtRp718
(dp719
g12
g38
sg14
S'Antykwa Torunska Condensed'
p720
sg16
I400
sg17
g52
sg18
g13
sg19
S'/usr/share/fonts/texlive-antt/AntykwaTorunskaCond-Italic.otf'
p721
sg21
g22
sbag7
(g8
g9
NtRp722
(dp723
g12
g13
sg14
S'Iwona Cond Light'
p724
sg16
I200
sg17
g52
sg18
g13
sg19
S'/usr/share/fonts/texlive-iwona/IwonaCondLight-Regular.otf'
p725
sg21
g22
sbag7
(g8
g9
NtRp726
(dp727
g12
g13
sg14
S'Droid Sans'
p728
sg16
I700
sg17
g13
sg18
g13
sg19
S'/usr/share/fonts/texlive-droid/DroidSans-Bold.ttf'
p729
sg21
g22
sbag7
(g8
g9
NtRp730
(dp731
g12
g13
sg14
S'Latin Modern Roman'
p732
sg16
I400
sg17
g13
sg18
g13
sg19
S'/usr/share/fonts/texlive-lm/lmroman9-regular.otf'
p733
sg21
g22
sbag7
(g8
g9
NtRp734
(dp735
g12
g38
sg14
S'Gentium Book Basic'
p736
sg16
I400
sg17
g13
sg18
g13
sg19
S'/usr/share/fonts/texlive-gentium/GenBkBasI.ttf'
p737
sg21
g22
sbag7
(g8
g9
NtRp738
(dp739
g12
g13
sg14
S'Latin Modern Mono Light Cond'
p740
sg16
I400
sg17
g52
sg18
g13
sg19
S'/usr/share/fonts/texlive-lm/lmmonoltcond10-regular.otf'
p741
sg21
g22
sbag7
(g8
g9
NtRp742
(dp743
g12
g13
sg14
S'Antykwa Torunska'
p744
sg16
I500
sg17
g13
sg18
g13
sg19
S'/usr/share/fonts/texlive-antt/AntykwaTorunskaMed-Regular.otf'
p745
sg21
g22
sbag7
(g8
g9
NtRp746
(dp747
g12
g38
sg14
S'PT Serif'
p748
sg16
I700
sg17
g13
sg18
g13
sg19
S'/usr/share/fonts/texlive-paratype/PTF76F.ttf'
p749
sg21
g22
sbag7
(g8
g9
NtRp750
(dp751
g12
g13
sg14
S'Kurier Heavy'
p752
sg16
I800
sg17
g13
sg18
g13
sg19
S'/usr/share/fonts/texlive-kurier/KurierHeavy-Regular.otf'
p753
sg21
g22
sbag7
(g8
g9
NtRp754
(dp755
g12
g13
sg14
S'Latin Modern Mono'
p756
sg16
I400
sg17
g13
sg18
g13
sg19
S'/usr/share/fonts/texlive-lm/lmmono10-regular.otf'
p757
sg21
g22
sbag7
(g8
g9
NtRp758
(dp759
g12
g38
sg14
S'TeX Gyre Schola'
p760
sg16
I700
sg17
g13
sg18
g13
sg19
S'/usr/share/fonts/texlive-tex-gyre/texgyreschola-bolditalic.otf'
p761
sg21
g22
sbag7
(g8
g9
NtRp762
(dp763
g12
g38
sg14
S'Gentium Book Basic'
p764
sg16
I700
sg17
g13
sg18
g13
sg19
S'/usr/share/fonts/texlive-gentium/GenBkBasBI.ttf'
p765
sg21
g22
sbag7
(g8
g9
NtRp766
(dp767
g12
g13
sg14
S'Phaistos'
p768
sg16
I400
sg17
g13
sg18
g13
sg19
S'/usr/share/fonts/texlive-phaistos/Phaistos.otf'
p769
sg21
g22
sbag7
(g8
g9
NtRp770
(dp771
g12
g13
sg14
S'STIXSizeOneSym'
p772
sg16
I400
sg17
g13
sg18
g13
sg19
S'/usr/share/fonts/texlive-stix/STIXSizOneSymReg.otf'
p773
sg21
g22
sbag7
(g8
g9
NtRp774
(dp775
g12
g38
sg14
S'Latin Modern Roman'
p776
sg16
I500
sg17
g13
sg18
g13
sg19
S'/usr/share/fonts/texlive-lm/lmroman10-italic.otf'
p777
sg21
g22
sbag7
(g8
g9
NtRp778
(dp779
g12
g38
sg14
S'Iwona Medium'
p780
sg16
I500
sg17
g13
sg18
g13
sg19
S'/usr/share/fonts/texlive-iwona/IwonaMedium-Italic.otf'
p781
sg21
g22
sbag7
(g8
g9
NtRp782
(dp783
g12
g13
sg14
S'TeX Gyre Termes'
p784
sg16
I400
sg17
g13
sg18
g13
sg19
S'/usr/share/fonts/texlive-tex-gyre/texgyretermes-regular.otf'
p785
sg21
g22
sbag7
(g8
g9
NtRp786
(dp787
g12
g29
sg14
S'Latin Modern Sans Demi Cond'
p788
sg16
I600
sg17
g52
sg18
g13
sg19
S'/usr/share/fonts/texlive-lm/lmsansdemicond10-oblique.otf'
p789
sg21
g22
sbag7
(g8
g9
NtRp790
(dp791
g12
g13
sg14
S'Semafor'
p792
sg16
I400
sg17
g13
sg18
g13
sg19
S'/usr/share/fonts/texlive-semaphor/smfer10.otf'
p793
sg21
g22
sbag7
(g8
g9
NtRp794
(dp795
g12
g13
sg14
S'MnSymbol'
p796
sg16
I700
sg17
g13
sg18
g13
sg19
S'/usr/share/fonts/texlive-mnsymbol/MnSymbol-Bold12.otf'
p797
sg21
g22
sbag7
(g8
g9
NtRp798
(dp799
g12
g13
sg14
S'DejaVu Sans Mono'
p800
sg16
I700
sg17
g13
sg18
g13
sg19
S'/usr/share/fonts/texlive-dejavu/DejaVuSansMono-Bold.ttf'
p801
sg21
g22
sbag7
(g8
g9
NtRp802
(dp803
g12
g38
sg14
S'PT Serif Caption'
p804
sg16
I400
sg17
g13
sg18
g13
sg19
S'/usr/share/fonts/texlive-paratype/PTZ56F.ttf'
p805
sg21
g22
sbag7
(g8
g9
NtRp806
(dp807
g12
g38
sg14
S'GFS Didot'
p808
sg16
I700
sg17
g13
sg18
g13
sg19
S'/usr/share/fonts/texlive-gfsartemisia/GFSArtemisiaBoldIt.otf'
p809
sg21
g22
sbag7
(g8
g9
NtRp810
(dp811
g12
g13
sg14
S'Latin Modern Roman Caps'
p812
sg16
I400
sg17
g13
sg18
g13
sg19
S'/usr/share/fonts/texlive-lm/lmromancaps10-regular.otf'
p813
sg21
g22
sbag7
(g8
g9
NtRp814
(dp815
g12
g13
sg14
S'Latin Modern Sans'
p816
sg16
I400
sg17
g13
sg18
g13
sg19
S'/usr/share/fonts/texlive-lm/lmsans17-regular.otf'
p817
sg21
g22
sbag7
(g8
g9
NtRp818
(dp819
g12
g13
sg14
S'Latin Modern Roman'
p820
sg16
I700
sg17
g13
sg18
g13
sg19
S'/usr/share/fonts/texlive-lm/lmroman7-bold.otf'
p821
sg21
g22
sbag7
(g8
g9
NtRp822
(dp823
g12
g38
sg14
S'Open Sans'
p824
sg16
I700
sg17
g13
sg18
g13
sg19
S'/usr/share/fonts/texlive-opensans/OpenSans-BoldItalic.ttf'
p825
sg21
g22
sbag7
(g8
g9
NtRp826
(dp827
g12
g29
sg14
S'Latin Modern Mono Prop Light'
p828
sg16
I200
sg17
g13
sg18
g13
sg19
S'/usr/share/fonts/texlive-lm/lmmonoproplt10-oblique.otf'
p829
sg21
g22
sbag7
(g8
g9
NtRp830
(dp831
g12
g38
sg14
S'Latin Modern Roman'
p832
sg16
I500
sg17
g13
sg18
g13
sg19
S'/usr/share/fonts/texlive-lm/lmroman8-italic.otf'
p833
sg21
g22
sbag7
(g8
g9
NtRp834
(dp835
g12
g13
sg14
S'MnSymbol'
p836
sg16
I700
sg17
g13
sg18
g13
sg19
S'/usr/share/fonts/texlive-mnsymbol/MnSymbol-Bold5.otf'
p837
sg21
g22
sbag7
(g8
g9
NtRp838
(dp839
g12
g29
sg14
S'DejaVu Sans Mono'
p840
sg16
I400
sg17
g13
sg18
g13
sg19
S'/usr/share/fonts/texlive-dejavu/DejaVuSansMono-Oblique.ttf'
p841
sg21
g22
sbag7
(g8
g9
NtRp842
(dp843
g12
g13
sg14
S'Comic Sans MS'
p844
sg16
I700
sg17
g13
sg18
g13
sg19
S'/usr/share/fonts/msttcore/comicbd.ttf'
p845
sg21
g22
sbag7
(g8
g9
NtRp846
(dp847
g12
g13
sg14
S'Latin Modern Roman'
p848
sg16
I400
sg17
g13
sg18
g13
sg19
S'/usr/share/fonts/texlive-lm/lmroman10-regular.otf'
p849
sg21
g22
sbag7
(g8
g9
NtRp850
(dp851
g12
g38
sg14
S'Open Sans'
p852
sg16
I200
sg17
g13
sg18
g13
sg19
S'/usr/share/fonts/texlive-opensans/OpenSans-LightItalic.ttf'
p853
sg21
g22
sbag7
(g8
g9
NtRp854
(dp855
g12
g13
sg14
S'XITS'
p856
sg16
I700
sg17
g13
sg18
g13
sg19
S'/usr/share/fonts/texlive-xits/xits-bold.otf'
p857
sg21
g22
sbag7
(g8
g9
NtRp858
(dp859
g12
g38
sg14
S'Latin Modern Roman'
p860
sg16
I500
sg17
g13
sg18
g13
sg19
S'/usr/share/fonts/texlive-lm/lmroman9-italic.otf'
p861
sg21
g22
sbag7
(g8
g9
NtRp862
(dp863
g12
g38
sg14
S'Linux Libertine Slanted O'
p864
sg16
I700
sg17
g13
sg18
g13
sg19
S'/usr/share/fonts/texlive-libertine/fxlzo.otf'
p865
sg21
g22
sbag7
(g8
g9
NtRp866
(dp867
g12
g38
sg14
S'Antykwa Torunska'
p868
sg16
I700
sg17
g13
sg18
g13
sg19
S'/usr/share/fonts/texlive-antt/AntykwaTorunska-BoldItalic.otf'
p869
sg21
g22
sbag7
(g8
g9
NtRp870
(dp871
g12
g13
sg14
S'MarVoSym'
p872
sg16
I400
sg17
g13
sg18
g13
sg19
S'/usr/share/fonts/texlive-marvosym/marvosym.ttf'
p873
sg21
g22
sbag7
(g8
g9
NtRp874
(dp875
g12
g13
sg14
S'MnSymbol'
p876
sg16
I400
sg17
g13
sg18
g13
sg19
S'/usr/share/fonts/texlive-mnsymbol/MnSymbol9.otf'
p877
sg21
g22
sbag7
(g8
g9
NtRp878
(dp879
g12
g13
sg14
S'Punk Nova'
p880
sg16
I400
sg17
g13
sg18
g13
sg19
S'/usr/share/fonts/texlive-punknova/punknova-regular.otf'
p881
sg21
g22
sbag7
(g8
g9
NtRp882
(dp883
g12
g13
sg14
S'Antykwa Poltawskiego'
p884
sg16
I400
sg17
g13
sg18
g13
sg19
S'/usr/share/fonts/texlive-poltawski/antpoltsemiexpd-regular.otf'
p885
sg21
g22
sbag7
(g8
g9
NtRp886
(dp887
g12
g13
sg14
S'STIXNonUnicode'
p888
sg16
I400
sg17
g13
sg18
g13
sg19
S'/usr/share/fonts/texlive-stix/STIXNonUni.otf'
p889
sg21
g22
sbag7
(g8
g9
NtRp890
(dp891
g12
g13
sg14
S'Latin Modern Math'
p892
sg16
I400
sg17
g13
sg18
g13
sg19
S'/usr/share/fonts/texlive-lm/lmmath-regular.otf'
p893
sg21
g22
sbag7
(g8
g9
NtRp894
(dp895
g12
g13
sg14
S'Antykwa Poltawskiego'
p896
sg16
I400
sg17
g52
sg18
g13
sg19
S'/usr/share/fonts/texlive-poltawski/antpoltcond-regular.otf'
p897
sg21
g22
sbag7
(g8
g9
NtRp898
(dp899
g12
g13
sg14
S'Comic Sans MS'
p900
sg16
I400
sg17
g13
sg18
g13
sg19
S'/usr/share/fonts/msttcore/comic.ttf'
p901
sg21
g22
sbag7
(g8
g9
NtRp902
(dp903
g12
g13
sg14
S'TeX Gyre Schola'
p904
sg16
I400
sg17
g13
sg18
g13
sg19
S'/usr/share/fonts/texlive-tex-gyre/texgyreschola-regular.otf'
p905
sg21
g22
sbag7
(g8
g9
NtRp906
(dp907
g12
g29
sg14
S'Latin Modern Sans'
p908
sg16
I400
sg17
g13
sg18
g13
sg19
S'/usr/share/fonts/texlive-lm/lmsans10-oblique.otf'
p909
sg21
g22
sbag7
(g8
g9
NtRp910
(dp911
g12
g38
sg14
S'Antykwa Poltawskiego Light'
p912
sg16
I200
sg17
g13
sg18
g13
sg19
S'/usr/share/fonts/texlive-poltawski/antpoltltexpd-italic.otf'
p913
sg21
g22
sbag7
(g8
g9
NtRp914
(dp915
g12
g13
sg14
S'Courier New'
p916
sg16
I700
sg17
g13
sg18
g13
sg19
S'/usr/share/fonts/msttcore/courbd.ttf'
p917
sg21
g22
sbag7
(g8
g9
NtRp918
(dp919
g12
g38
sg14
S'GFS Didot'
p920
sg16
I700
sg17
g13
sg18
g13
sg19
S'/usr/share/fonts/texlive-gfsdidot/GFSDidotBoldItalic.otf'
p921
sg21
g22
sbag7
(g8
g9
NtRp922
(dp923
g12
g38
sg14
S'Kurier Cond Heavy'
p924
sg16
I800
sg17
g52
sg18
g13
sg19
S'/usr/share/fonts/texlive-kurier/KurierCondHeavy-Italic.otf'
p925
sg21
g22
sbag7
(g8
g9
NtRp926
(dp927
g12
g13
sg14
S'TeX Gyre Heros'
p928
sg16
I700
sg17
g13
sg18
g13
sg19
S'/usr/share/fonts/texlive-tex-gyre/texgyreheros-bold.otf'
p929
sg21
g22
sbag7
(g8
g9
NtRp930
(dp931
g12
g13
sg14
S'Linux Biolinum O'
p932
sg16
I700
sg17
g13
sg18
g13
sg19
S'/usr/share/fonts/texlive-libertine/fxbb.otf'
p933
sg21
g22
sbag7
(g8
g9
NtRp934
(dp935
g12
g13
sg14
S'SkakNew-Figurine'
p936
sg16
I400
sg17
g13
sg18
g13
sg19
S'/usr/share/fonts/texlive-skaknew/SkakNew-Figurine.otf'
p937
sg21
g22
sbag7
(g8
g9
NtRp938
(dp939
g12
g38
sg14
S'Trebuchet MS'
p940
sg16
I700
sg17
g13
sg18
g13
sg19
S'/usr/share/fonts/msttcore/trebucbi.ttf'
p941
sg21
g22
sbag7
(g8
g9
NtRp942
(dp943
g12
g38
sg14
S'Antykwa Torunska'
p944
sg16
I500
sg17
g13
sg18
g13
sg19
S'/usr/share/fonts/texlive-antt/AntykwaTorunskaMed-Italic.otf'
p945
sg21
g22
sbag7
(g8
g9
NtRp946
(dp947
g12
g38
sg14
S'Linux Libertine O'
p948
sg16
I700
sg17
g13
sg18
g13
sg19
S'/usr/share/fonts/texlive-libertine/fxlbi.otf'
p949
sg21
g22
sbag7
(g8
g9
NtRp950
(dp951
g12
g13
sg14
S'Iwona'
p952
sg16
I400
sg17
g13
sg18
g13
sg19
S'/usr/share/fonts/texlive-iwona/Iwona-Regular.otf'
p953
sg21
g22
sbag7
(g8
g9
NtRp954
(dp955
g12
g13
sg14
S'MnSymbol'
p956
sg16
I400
sg17
g13
sg18
g13
sg19
S'/usr/share/fonts/texlive-mnsymbol/MnSymbol8.otf'
p957
sg21
g22
sbag7
(g8
g9
NtRp958
(dp959
g12
g38
sg14
S'GFS Bodoni'
p960
sg16
I400
sg17
g13
sg18
g13
sg19
S'/usr/share/fonts/texlive-gfsbodoni/GFSBodoniIt.otf'
p961
sg21
g22
sbag7
(g8
g9
NtRp962
(dp963
g12
g38
sg14
S'Gentium'
p964
sg16
I400
sg17
g13
sg18
g13
sg19
S'/usr/share/fonts/texlive-gentium/GenI102.ttf'
p965
sg21
g22
sbag7
(g8
g9
NtRp966
(dp967
g12
g13
sg14
S'STIXGeneral'
p968
sg16
I400
sg17
g13
sg18
g13
sg19
S'/usr/share/fonts/texlive-stix/STIXGeneral.otf'
p969
sg21
g22
sbag7
(g8
g9
NtRp970
(dp971
g12
g38
sg14
S'Antykwa Poltawskiego Light'
p972
sg16
I700
sg17
g13
sg18
g13
sg19
S'/usr/share/fonts/texlive-poltawski/antpoltlt-bolditalic.otf'
p973
sg21
g22
sbag7
(g8
g9
NtRp974
(dp975
g12
g38
sg14
S'Antykwa Poltawskiego Light'
p976
sg16
I200
sg17
g13
sg18
g13
sg19
S'/usr/share/fonts/texlive-poltawski/antpoltlt-italic.otf'
p977
sg21
g22
sbag7
(g8
g9
NtRp978
(dp979
g12
g13
sg14
S'Latin Modern Sans'
p980
sg16
I700
sg17
g13
sg18
g13
sg19
S'/usr/share/fonts/texlive-lm/lmsans10-bold.otf'
p981
sg21
g22
sbag7
(g8
g9
NtRp982
(dp983
g12
g13
sg14
S'Linux Biolinum Outline O'
p984
sg16
I700
sg17
g13
sg18
g13
sg19
S'/usr/share/fonts/texlive-libertine/fxbob.otf'
p985
sg21
g22
sbag7
(g8
g9
NtRp986
(dp987
g12
g38
sg14
S'Kurier Medium'
p988
sg16
I500
sg17
g13
sg18
g13
sg19
S'/usr/share/fonts/texlive-kurier/KurierMedium-Italic.otf'
p989
sg21
g22
sbag7
(g8
g9
NtRp990
(dp991
g12
g38
sg14
S'Semafor'
p992
sg16
I400
sg17
g13
sg18
g13
sg19
S'/usr/share/fonts/texlive-semaphor/smfsl10.otf'
p993
sg21
g22
sbag7
(g8
g9
NtRp994
(dp995
g12
g38
sg14
S'DejaVu Serif'
p996
sg16
I400
sg17
g52
sg18
g13
sg19
S'/usr/share/fonts/dejavu/DejaVuSerifCondensed-Italic.ttf'
p997
sg21
g22
sbag7
(g8
g9
NtRp998
(dp999
g12
g13
sg14
S'CMU Typewriter Text'
p1000
sg16
I400
sg17
g13
sg18
g13
sg19
S'/usr/share/fonts/texlive-cm-unicode/cmuntt.otf'
p1001
sg21
g22
sbag7
(g8
g9
NtRp1002
(dp1003
g12
g29
sg14
S'Latin Modern Mono Light'
p1004
sg16
I700
sg17
g13
sg18
g13
sg19
S'/usr/share/fonts/texlive-lm/lmmonolt10-boldoblique.otf'
p1005
sg21
g22
sbag7
(g8
g9
NtRp1006
(dp1007
g12
g13
sg14
S'DejaVu Sans'
p1008
sg16
I400
sg17
g13
sg18
g13
sg19
S'/usr/share/fonts/texlive-dejavu/DejaVuSans.ttf'
p1009
sg21
g22
sbag7
(g8
g9
NtRp1010
(dp1011
g12
g13
sg14
S'Antykwa Poltawskiego'
p1012
sg16
I400
sg17
g52
sg18
g13
sg19
S'/usr/share/fonts/texlive-poltawski/antpoltsemicond-regular.otf'
p1013
sg21
g22
sbag7
(g8
g9
NtRp1014
(dp1015
g12
g38
sg14
S'Times New Roman'
p1016
sg16
I700
sg17
g13
sg18
g13
sg19
S'/usr/share/fonts/msttcore/timesbi.ttf'
p1017
sg21
g22
sbag7
(g8
g9
NtRp1018
(dp1019
g12
g29
sg14
S'CMU Bright'
p1020
sg16
I700
sg17
g13
sg18
g13
sg19
S'/usr/share/fonts/texlive-cm-unicode/cmunbso.otf'
p1021
sg21
g22
sbag7
(g8
g9
NtRp1022
(dp1023
g12
g13
sg14
S'Comfortaa'
p1024
sg16
I200
sg17
g13
sg18
g13
sg19
S'/usr/share/fonts/texlive-comfortaa/Comfortaa-Light.ttf'
p1025
sg21
g22
sbag7
(g8
g9
NtRp1026
(dp1027
g12
g13
sg14
S'MnSymbol'
p1028
sg16
I400
sg17
g13
sg18
g13
sg19
S'/usr/share/fonts/texlive-mnsymbol/MnSymbol7.otf'
p1029
sg21
g22
sbag7
(g8
g9
NtRp1030
(dp1031
g12
g13
sg14
S'SkakNew-Diagram'
p1032
sg16
I400
sg17
g13
sg18
g13
sg19
S'/usr/share/fonts/texlive-skaknew/SkakNew-DiagramT.otf'
p1033
sg21
g22
sbag7
(g8
g9
NtRp1034
(dp1035
g12
g38
sg14
S'Times New Roman'
p1036
sg16
I500
sg17
g13
sg18
g13
sg19
S'/usr/share/fonts/msttcore/timesi.ttf'
p1037
sg21
g22
sbag7
(g8
g9
NtRp1038
(dp1039
g12
g38
sg14
S'FreeSerif'
p1040
sg16
I400
sg17
g13
sg18
g13
sg19
S'/usr/share/fonts/texlive-gnu-freefont/FreeSerifItalic.otf'
p1041
sg21
g22
sbag7
(g8
g9
NtRp1042
(dp1043
g12
g13
sg14
S'PT Serif'
p1044
sg16
I400
sg17
g13
sg18
g13
sg19
S'/usr/share/fonts/texlive-paratype/PTF55F.ttf'
p1045
sg21
g22
sbag7
(g8
g9
NtRp1046
(dp1047
g12
g13
sg14
S'Impact'
p1048
sg16
I400
sg17
g13
sg18
g13
sg19
S'/usr/share/fonts/msttcore/impact.ttf'
p1049
sg21
g22
sbag7
(g8
g9
NtRp1050
(dp1051
g12
g13
sg14
S'Verdana'
p1052
sg16
I700
sg17
g13
sg18
g13
sg19
S'/usr/share/fonts/msttcore/verdanab.ttf'
p1053
sg21
g22
sbag7
(g8
g9
NtRp1054
(dp1055
g12
g29
sg14
S'Latin Modern Sans'
p1056
sg16
I400
sg17
g13
sg18
g13
sg19
S'/usr/share/fonts/texlive-lm/lmsans12-oblique.otf'
p1057
sg21
g22
sbag7
(g8
g9
NtRp1058
(dp1059
g12
g13
sg14
S'ocrb6'
p1060
sg16
I400
sg17
g13
sg18
g13
sg19
S'/usr/share/fonts/texlive-ocr-b-outline/ocrb6.otf'
p1061
sg21
g22
sbag7
(g8
g9
NtRp1062
(dp1063
g12
g13
sg14
S'DejaVu Serif'
p1064
sg16
I700
sg17
g13
sg18
g13
sg19
S'/usr/share/fonts/texlive-dejavu/DejaVuSerif-Bold.ttf'
p1065
sg21
g22
sbag7
(g8
g9
NtRp1066
(dp1067
g12
g13
sg14
S'Lato'
p1068
sg16
I400
sg17
g13
sg18
g13
sg19
S'/usr/share/fonts/texlive-lato/Lato-Hairline.ttf'
p1069
sg21
g22
sbag7
(g8
g9
NtRp1070
(dp1071
g12
g38
sg14
S'Lato'
p1072
sg16
I400
sg17
g13
sg18
g13
sg19
S'/usr/share/fonts/texlive-lato/Lato-HairlineItalic.ttf'
p1073
sg21
g22
sbag7
(g8
g9
NtRp1074
(dp1075
g12
g13
sg14
S'IPAGothic'
p1076
sg16
I400
sg17
g13
sg18
g13
sg19
S'/usr/share/fonts/texlive-ipaex/ipag.ttf'
p1077
sg21
g22
sbag7
(g8
g9
NtRp1078
(dp1079
g12
g13
sg14
S'PT Sans Narrow'
p1080
sg16
I400
sg17
g52
sg18
g13
sg19
S'/usr/share/fonts/texlive-paratype/PTN57F.ttf'
p1081
sg21
g22
sbag7
(g8
g9
NtRp1082
(dp1083
g12
g38
sg14
S'Iwona Cond'
p1084
sg16
I400
sg17
g52
sg18
g13
sg19
S'/usr/share/fonts/texlive-iwona/IwonaCond-Italic.otf'
p1085
sg21
g22
sbag7
(g8
g9
NtRp1086
(dp1087
g12
g13
sg14
S'Antykwa Poltawskiego'
p1088
sg16
I400
sg17
g13
sg18
g13
sg19
S'/usr/share/fonts/texlive-poltawski/antpolt-regular.otf'
p1089
sg21
g22
sbag7
(g8
g9
NtRp1090
(dp1091
g12
g38
sg14
S'Kurier'
p1092
sg16
I400
sg17
g13
sg18
g13
sg19
S'/usr/share/fonts/texlive-kurier/Kurier-Italic.otf'
p1093
sg21
g22
sbag7
(g8
g9
NtRp1094
(dp1095
g12
g13
sg14
S'Latin Modern Roman'
p1096
sg16
I400
sg17
g13
sg18
g13
sg19
S'/usr/share/fonts/texlive-lm/lmroman5-regular.otf'
p1097
sg21
g22
sbag7
(g8
g9
NtRp1098
(dp1099
g12
g13
sg14
S'Linux Biolinum Outline O'
p1100
sg16
I400
sg17
g13
sg18
g13
sg19
S'/usr/share/fonts/texlive-libertine/fxbo.otf'
p1101
sg21
g22
sbag7
(g8
g9
NtRp1102
(dp1103
g12
g13
sg14
S'Gentium Book Basic'
p1104
sg16
I400
sg17
g13
sg18
g13
sg19
S'/usr/share/fonts/texlive-gentium/GenBkBasR.ttf'
p1105
sg21
g22
sbag7
(g8
g9
NtRp1106
(dp1107
g12
g38
sg14
S'Linux Biolinum Shadow O'
p1108
sg16
I400
sg17
g13
sg18
g13
sg19
S'/usr/share/fonts/texlive-libertine/fxbsi.otf'
p1109
sg21
g22
sbag7
(g8
g9
NtRp1110
(dp1111
g12
g13
sg14
S'Times New Roman'
p1112
sg16
I500
sg17
g13
sg18
g13
sg19
S'/usr/share/fonts/msttcore/times.ttf'
p1113
sg21
g22
sbag7
(g8
g9
NtRp1114
(dp1115
g12
g13
sg14
S'Iwona Heavy'
p1116
sg16
I800
sg17
g13
sg18
g13
sg19
S'/usr/share/fonts/texlive-iwona/IwonaHeavy-Regular.otf'
p1117
sg21
g22
sbag7
(g8
g9
NtRp1118
(dp1119
g12
g13
sg14
S'Antykwa Poltawskiego Light'
p1120
sg16
I200
sg17
g13
sg18
g13
sg19
S'/usr/share/fonts/texlive-poltawski/antpoltlt-regular.otf'
p1121
sg21
g22
sbag7
(g8
g9
NtRp1122
(dp1123
g12
g13
sg14
S'Latin Modern Roman'
p1124
sg16
I700
sg17
g13
sg18
g13
sg19
S'/usr/share/fonts/texlive-lm/lmroman9-bold.otf'
p1125
sg21
g22
sbag7
(g8
g9
NtRp1126
(dp1127
g12
g13
sg14
S'Droid Serif'
p1128
sg16
I400
sg17
g13
sg18
g13
sg19
S'/usr/share/fonts/texlive-droid/DroidSerif-Regular.ttf'
p1129
sg21
g22
sbag7
(g8
g9
NtRp1130
(dp1131
g12
g38
sg14
S'GFS Neohellenic'
p1132
sg16
I700
sg17
g13
sg18
g13
sg19
S'/usr/share/fonts/texlive-gfsneohellenic/GFSNeohellenicBoldIt.otf'
p1133
sg21
g22
sbag7
(g8
g9
NtRp1134
(dp1135
g12
g13
sg14
S'Latin Modern Roman Unslanted'
p1136
sg16
I400
sg17
g13
sg18
g13
sg19
S'/usr/share/fonts/texlive-lm/lmromanunsl10-regular.otf'
p1137
sg21
g22
sbag7
(g8
g9
NtRp1138
(dp1139
g12
g13
sg14
S'Arial'
p1140
sg16
I700
sg17
g13
sg18
g13
sg19
S'/usr/share/fonts/msttcore/arialbd.ttf'
p1141
sg21
g22
sbag7
(g8
g9
NtRp1142
(dp1143
g12
g13
sg14
S'Latin Modern Roman Slanted'
p1144
sg16
I700
sg17
g13
sg18
g13
sg19
S'/usr/share/fonts/texlive-lm/lmromanslant10-bold.otf'
p1145
sg21
g22
sbag7
(g8
g9
NtRp1146
(dp1147
g12
g13
sg14
S'Linux Libertine O'
p1148
sg16
I400
sg17
g13
sg18
g13
sg19
S'/usr/share/fonts/texlive-libertine/fxlr.otf'
p1149
sg21
g22
sbag7
(g8
g9
NtRp1150
(dp1151
g12
g38
sg14
S'TeX Gyre Heros Cn'
p1152
sg16
I400
sg17
g13
sg18
g13
sg19
S'/usr/share/fonts/texlive-tex-gyre/texgyreheroscn-italic.otf'
p1153
sg21
g22
sbag7
(g8
g9
NtRp1154
(dp1155
g12
g13
sg14
S'FreeSans'
p1156
sg16
I700
sg17
g13
sg18
g13
sg19
S'/usr/share/fonts/texlive-gnu-freefont/FreeSansBold.otf'
p1157
sg21
g22
sbag7
(g8
g9
NtRp1158
(dp1159
g12
g29
sg14
S'CMU Sans Serif'
p1160
sg16
I700
sg17
g13
sg18
g13
sg19
S'/usr/share/fonts/texlive-cm-unicode/cmunso.otf'
p1161
sg21
g22
sbag7
(g8
g9
NtRp1162
(dp1163
g12
g13
sg14
S'Latin Modern Mono Light'
p1164
sg16
I700
sg17
g13
sg18
g13
sg19
S'/usr/share/fonts/texlive-lm/lmmonolt10-bold.otf'
p1165
sg21
g22
sbag7
(g8
g9
NtRp1166
(dp1167
g12
g38
sg14
S'Antykwa Poltawskiego'
p1168
sg16
I400
sg17
g13
sg18
g13
sg19
S'/usr/share/fonts/texlive-poltawski/antpoltexpd-italic.otf'
p1169
sg21
g22
sbag7
(g8
g9
NtRp1170
(dp1171
g12
g13
sg14
S'GFS Neohellenic'
p1172
sg16
I400
sg17
g13
sg18
g13
sg19
S'/usr/share/fonts/texlive-gfsneohellenic/GFSNeohellenic.otf'
p1173
sg21
g22
sbag7
(g8
g9
NtRp1174
(dp1175
g12
g38
sg14
S'Antykwa Torunska'
p1176
sg16
I400
sg17
g13
sg18
g13
sg19
S'/usr/share/fonts/texlive-antt/AntykwaTorunska-Italic.otf'
p1177
sg21
g22
sbag7
(g8
g9
NtRp1178
(dp1179
g12
g13
sg14
S'UM Typewriter'
p1180
sg16
I400
sg17
g13
sg18
g13
sg19
S'/usr/share/fonts/texlive-umtypewriter/UMTypewriter-Regular.otf'
p1181
sg21
g22
sbag7
(g8
g9
NtRp1182
(dp1183
g12
g13
sg14
S'DejaVu Serif'
p1184
sg16
I400
sg17
g52
sg18
g13
sg19
S'/usr/share/fonts/dejavu/DejaVuSerifCondensed.ttf'
p1185
sg21
g22
sbag7
(g8
g9
NtRp1186
(dp1187
g12
g29
sg14
S'FreeSans'
p1188
sg16
I700
sg17
g13
sg18
g13
sg19
S'/usr/share/fonts/texlive-gnu-freefont/FreeSansBoldOblique.otf'
p1189
sg21
g22
sbag7
(g8
g9
NtRp1190
(dp1191
g12
g13
sg14
S'Lato'
p1192
sg16
I200
sg17
g13
sg18
g13
sg19
S'/usr/share/fonts/texlive-lato/Lato-Light.ttf'
p1193
sg21
g22
sbag7
(g8
g9
NtRp1194
(dp1195
g12
g38
sg14
S'Linux Biolinum O'
p1196
sg16
I400
sg17
g13
sg18
g13
sg19
S'/usr/share/fonts/texlive-libertine/fxbri.otf'
p1197
sg21
g22
sbag7
(g8
g9
NtRp1198
(dp1199
g12
g13
sg14
S'Antykwa Poltawskiego Light'
p1200
sg16
I700
sg17
g13
sg18
g13
sg19
S'/usr/share/fonts/texlive-poltawski/antpoltltsemiexpd-bold.otf'
p1201
sg21
g22
sbag7
(g8
g9
NtRp1202
(dp1203
g12
g38
sg14
S'GFS Didot'
p1204
sg16
I400
sg17
g13
sg18
g13
sg19
S'/usr/share/fonts/texlive-gfsdidot/GFSDidotItalic.otf'
p1205
sg21
g22
sbag7
(g8
g9
NtRp1206
(dp1207
g12
g13
sg14
S'PT Sans Narrow'
p1208
sg16
I700
sg17
g52
sg18
g13
sg19
S'/usr/share/fonts/texlive-paratype/PTN77F.ttf'
p1209
sg21
g22
sbag7
(g8
g9
NtRp1210
(dp1211
g12
g13
sg14
S'Latin Modern Sans'
p1212
sg16
I400
sg17
g13
sg18
g13
sg19
S'/usr/share/fonts/texlive-lm/lmsans9-regular.otf'
p1213
sg21
g22
sbag7
(g8
g9
NtRp1214
(dp1215
g12
g38
sg14
S'Kurier Light'
p1216
sg16
I200
sg17
g13
sg18
g13
sg19
S'/usr/share/fonts/texlive-kurier/KurierLight-Italic.otf'
p1217
sg21
g22
sbag7
(g8
g9
NtRp1218
(dp1219
g12
g38
sg14
S'Antykwa Poltawskiego'
p1220
sg16
I700
sg17
g13
sg18
g13
sg19
S'/usr/share/fonts/texlive-poltawski/antpolt-bolditalic.otf'
p1221
sg21
g22
sbag7
(g8
g9
NtRp1222
(dp1223
g12
g38
sg14
S'Antykwa Poltawskiego'
p1224
sg16
I400
sg17
g13
sg18
g13
sg19
S'/usr/share/fonts/texlive-poltawski/antpolt-italic.otf'
p1225
sg21
g22
sbag7
(g8
g9
NtRp1226
(dp1227
g12
g38
sg14
S'CMU Classical Serif'
p1228
sg16
I400
sg17
g13
sg18
g13
sg19
S'/usr/share/fonts/texlive-cm-unicode/cmunci.otf'
p1229
sg21
g22
sbag7
(g8
g9
NtRp1230
(dp1231
g12
g29
sg14
S'FreeSans'
p1232
sg16
I700
sg17
g13
sg18
g13
sg19
S'/usr/share/fonts/texlive-gnu-freefont/FreeSansBoldOblique.ttf'
p1233
sg21
g22
sbag7
(g8
g9
NtRp1234
(dp1235
g12
g38
sg14
S'CMU Serif Extra'
p1236
sg16
I500
sg17
g13
sg18
g13
sg19
S'/usr/share/fonts/texlive-cm-unicode/cmunsl.otf'
p1237
sg21
g22
sbag7
(g8
g9
NtRp1238
(dp1239
g12
g13
sg14
S'STIXGeneral'
p1240
sg16
I700
sg17
g13
sg18
g13
sg19
S'/usr/share/fonts/texlive-stix/STIXGeneralBol.otf'
p1241
sg21
g22
sbag7
(g8
g9
NtRp1242
(dp1243
g12
g13
sg14
S'Cyklop'
p1244
sg16
I400
sg17
g13
sg18
g13
sg19
S'/usr/share/fonts/texlive-cyklop/cyklop-regular.otf'
p1245
sg21
g22
sbag7
(g8
g9
NtRp1246
(dp1247
g12
g13
sg14
S'STIXSizeFiveSym'
p1248
sg16
I400
sg17
g13
sg18
g13
sg19
S'/usr/share/fonts/texlive-stix/STIXSizFiveSymReg.otf'
p1249
sg21
g22
sbag7
(g8
g9
NtRp1250
(dp1251
g12
g13
sg14
S'Iwona'
p1252
sg16
I700
sg17
g13
sg18
g13
sg19
S'/usr/share/fonts/texlive-iwona/Iwona-Bold.otf'
p1253
sg21
g22
sbag7
(g8
g9
NtRp1254
(dp1255
g12
g13
sg14
S'Georgia'
p1256
sg16
I700
sg17
g13
sg18
g13
sg19
S'/usr/share/fonts/msttcore/georgiab.ttf'
p1257
sg21
g22
sbag7
(g8
g9
NtRp1258
(dp1259
g12
g13
sg14
S'Webdings'
p1260
sg16
I400
sg17
g13
sg18
g13
sg19
S'/usr/share/fonts/msttcore/webdings.ttf'
p1261
sg21
g22
sbag7
(g8
g9
NtRp1262
(dp1263
g12
g13
sg14
S'FonetikaDaniaIwonae'
p1264
sg16
I700
sg17
g13
sg18
g13
sg19
S'/usr/share/fonts/texlive-fonetika/FonetikaDaniaIwonaeBold.ttf'
p1265
sg21
g22
sbag7
(g8
g9
NtRp1266
(dp1267
g12
g29
sg14
S'FreeMono'
p1268
sg16
I400
sg17
g13
sg18
g13
sg19
S'/usr/share/fonts/texlive-gnu-freefont/FreeMonoOblique.ttf'
p1269
sg21
g22
sbag7
(g8
g9
NtRp1270
(dp1271
g12
g38
sg14
S'Gentium Basic'
p1272
sg16
I400
sg17
g13
sg18
g13
sg19
S'/usr/share/fonts/texlive-gentium/GenBasI.ttf'
p1273
sg21
g22
sbag7
(g8
g9
NtRp1274
(dp1275
g12
g13
sg14
S'STIXSizeFourSym'
p1276
sg16
I700
sg17
g13
sg18
g13
sg19
S'/usr/share/fonts/texlive-stix/STIXSizFourSymBol.otf'
p1277
sg21
g22
sbag7
(g8
g9
NtRp1278
(dp1279
g12
g38
sg14
S'Punk Nova'
p1280
sg16
I400
sg17
g13
sg18
g13
sg19
S'/usr/share/fonts/texlive-punknova/punknova-slanted.otf'
p1281
sg21
g22
sbag7
(g8
g9
NtRp1282
(dp1283
g12
g13
sg14
S'IPAexMincho'
p1284
sg16
I400
sg17
g13
sg18
g13
sg19
S'/usr/share/fonts/texlive-ipaex/ipaexm.ttf'
p1285
sg21
g22
sbag7
(g8
g9
NtRp1286
(dp1287
g12
g13
sg14
S'Latin Modern Sans Quotation'
p1288
sg16
I700
sg17
g13
sg18
g13
sg19
S'/usr/share/fonts/texlive-lm/lmsansquot8-bold.otf'
p1289
sg21
g22
sbag7
(g8
g9
NtRp1290
(dp1291
g12
g13
sg14
S'Droid Serif'
p1292
sg16
I700
sg17
g13
sg18
g13
sg19
S'/usr/share/fonts/texlive-droid/DroidSerif-Bold.ttf'
p1293
sg21
g22
sbag7
(g8
g9
NtRp1294
(dp1295
g12
g38
sg14
S'Semafor'
p1296
sg16
I400
sg17
g13
sg18
g13
sg19
S'/usr/share/fonts/texlive-semaphor/smfpsl10.otf'
p1297
sg21
g22
sbag7
(g8
g9
NtRp1298
(dp1299
g12
g13
sg14
S'STIXVariants'
p1300
sg16
I400
sg17
g13
sg18
g13
sg19
S'/usr/share/fonts/texlive-stix/STIXVar.otf'
p1301
sg21
g22
sbag7
(g8
g9
NtRp1302
(dp1303
g12
g13
sg14
S'DejaVu Sans Mono'
p1304
sg16
I400
sg17
g13
sg18
g13
sg19
S'/usr/share/fonts/dejavu/DejaVuSansMono.ttf'
p1305
sg21
g22
sbag7
(g8
g9
NtRp1306
(dp1307
g12
g13
sg14
S'Antykwa Poltawskiego Light'
p1308
sg16
I700
sg17
g52
sg18
g13
sg19
S'/usr/share/fonts/texlive-poltawski/antpoltltsemicond-bold.otf'
p1309
sg21
g22
sbag7
(g8
g9
NtRp1310
(dp1311
g12
g13
sg14
S'Junicode'
p1312
sg16
I700
sg17
g13
sg18
g13
sg19
S'/usr/share/fonts/texlive-junicode/Junicode-Bold.ttf'
p1313
sg21
g22
sbag7
(g8
g9
NtRp1314
(dp1315
g12
g13
sg14
S'Comfortaa'
p1316
sg16
I700
sg17
g13
sg18
g13
sg19
S'/usr/share/fonts/texlive-comfortaa/Comfortaa-Bold.ttf'
p1317
sg21
g22
sbag7
(g8
g9
NtRp1318
(dp1319
g12
g13
sg14
S'Antykwa Torunska'
p1320
sg16
I400
sg17
g13
sg18
g13
sg19
S'/usr/share/fonts/texlive-antt/AntykwaTorunska-Regular.otf'
p1321
sg21
g22
sbag7
(g8
g9
NtRp1322
(dp1323
g12
g13
sg14
S'STIXSizeTwoSym'
p1324
sg16
I400
sg17
g13
sg18
g13
sg19
S'/usr/share/fonts/texlive-stix/STIXSizTwoSymReg.otf'
p1325
sg21
g22
sbag7
(g8
g9
NtRp1326
(dp1327
g12
g29
sg14
S'Latin Modern Sans Quotation'
p1328
sg16
I700
sg17
g13
sg18
g13
sg19
S'/usr/share/fonts/texlive-lm/lmsansquot8-boldoblique.otf'
p1329
sg21
g22
sbag7
(g8
g9
NtRp1330
(dp1331
g12
g29
sg14
S'Latin Modern Roman Dunhill'
p1332
sg16
I500
sg17
g13
sg18
g13
sg19
S'/usr/share/fonts/texlive-lm/lmromandunh10-oblique.otf'
p1333
sg21
g22
sbag7
(g8
g9
NtRp1334
(dp1335
g12
g38
sg14
S'GFS Bodoni'
p1336
sg16
I700
sg17
g13
sg18
g13
sg19
S'/usr/share/fonts/texlive-gfsbodoni/GFSBodoniBoldIt.otf'
p1337
sg21
g22
sbag7
(g8
g9
NtRp1338
(dp1339
g12
g13
sg14
S'Kurier Cond Light'
p1340
sg16
I200
sg17
g52
sg18
g13
sg19
S'/usr/share/fonts/texlive-kurier/KurierCondLight-Regular.otf'
p1341
sg21
g22
sbag7
(g8
g9
NtRp1342
(dp1343
g12
g13
sg14
S'TeX Gyre Chorus'
p1344
sg16
I400
sg17
g13
sg18
g13
sg19
S'/usr/share/fonts/texlive-tex-gyre/texgyrechorus-mediumitalic.otf'
p1345
sg21
g22
sbag7
(g8
g9
NtRp1346
(dp1347
g12
g38
sg14
S'UM Typewriter'
p1348
sg16
I400
sg17
g13
sg18
g13
sg19
S'/usr/share/fonts/texlive-umtypewriter/UMTypewriter-Italic.otf'
p1349
sg21
g22
sbag7
(g8
g9
NtRp1350
(dp1351
g12
g38
sg14
S'GFS Neohellenic'
p1352
sg16
I400
sg17
g13
sg18
g13
sg19
S'/usr/share/fonts/texlive-gfsneohellenic/GFSNeohellenicIt.otf'
p1353
sg21
g22
sbag7
(g8
g9
NtRp1354
(dp1355
g12
g13
sg14
S'Latin Modern Mono Prop Light'
p1356
sg16
I700
sg17
g13
sg18
g13
sg19
S'/usr/share/fonts/texlive-lm/lmmonoproplt10-bold.otf'
p1357
sg21
g22
sbag7
(g8
g9
NtRp1358
(dp1359
g12
g13
sg14
S'Open Sans'
p1360
sg16
I400
sg17
g13
sg18
g13
sg19
S'/usr/share/fonts/texlive-opensans/OpenSans-Regular.ttf'
p1361
sg21
g22
sbag7
(g8
g9
NtRp1362
(dp1363
g12
g13
sg14
S'FonetikaDaniaIwonae'
p1364
sg16
I400
sg17
g13
sg18
g13
sg19
S'/usr/share/fonts/texlive-fonetika/FonetikaDaniaIwonaeRegular.ttf'
p1365
sg21
g22
sbag7
(g8
g9
NtRp1366
(dp1367
g12
g13
sg14
S'Iwona Cond Heavy'
p1368
sg16
I800
sg17
g52
sg18
g13
sg19
S'/usr/share/fonts/texlive-iwona/IwonaCondHeavy-Regular.otf'
p1369
sg21
g22
sbag7
(g8
g9
NtRp1370
(dp1371
g12
g13
sg14
S'STIXSizeFourSym'
p1372
sg16
I400
sg17
g13
sg18
g13
sg19
S'/usr/share/fonts/texlive-stix/STIXSizFourSymReg.otf'
p1373
sg21
g22
sbag7
(g8
g9
NtRp1374
(dp1375
g12
g13
sg14
S'SkakNew-Diagram'
p1376
sg16
I400
sg17
g13
sg18
g13
sg19
S'/usr/share/fonts/texlive-skaknew/SkakNew-Diagram.otf'
p1377
sg21
g22
sbag7
(g8
g9
NtRp1378
(dp1379
g12
g29
sg14
S'FreeMono'
p1380
sg16
I700
sg17
g13
sg18
g13
sg19
S'/usr/share/fonts/texlive-gnu-freefont/FreeMonoBoldOblique.ttf'
p1381
sg21
g22
sbag7
(g8
g9
NtRp1382
(dp1383
g12
g13
sg14
S'TeX Gyre Cursor'
p1384
sg16
I700
sg17
g13
sg18
g13
sg19
S'/usr/share/fonts/texlive-tex-gyre/texgyrecursor-bold.otf'
p1385
sg21
g22
sbag7
(g8
g9
NtRp1386
(dp1387
g12
g38
sg14
S'Lato'
p1388
sg16
I200
sg17
g13
sg18
g13
sg19
S'/usr/share/fonts/texlive-lato/Lato-LightItalic.ttf'
p1389
sg21
g22
sbag7
(g8
g9
NtRp1390
(dp1391
g12
g13
sg14
S'FonetikaDaniaPallae'
p1392
sg16
I400
sg17
g13
sg18
g13
sg19
S'/usr/share/fonts/texlive-fonetika/FonetikaDaniaPallaeRegular.ttf'
p1393
sg21
g22
sbag7
(g8
g9
NtRp1394
(dp1395
g12
g38
sg14
S'DejaVu Serif'
p1396
sg16
I700
sg17
g13
sg18
g13
sg19
S'/usr/share/fonts/texlive-dejavu/DejaVuSerif-BoldItalic.ttf'
p1397
sg21
g22
sbag7
(g8
g9
NtRp1398
(dp1399
g12
g13
sg14
S'STIXIntegralsSm'
p1400
sg16
I400
sg17
g13
sg18
g13
sg19
S'/usr/share/fonts/texlive-stix/STIXIntSmReg.otf'
p1401
sg21
g22
sbag7
(g8
g9
NtRp1402
(dp1403
g12
g38
sg14
S'Open Sans'
p1404
sg16
I700
sg17
g13
sg18
g13
sg19
S'/usr/share/fonts/texlive-opensans/OpenSans-ExtraBoldItalic.ttf'
p1405
sg21
g22
sbag7
(g8
g9
NtRp1406
(dp1407
g12
g29
sg14
S'CMU Bright'
p1408
sg16
I400
sg17
g13
sg18
g13
sg19
S'/usr/share/fonts/texlive-cm-unicode/cmunbmo.otf'
p1409
sg21
g22
sbag7
(g8
g9
NtRp1410
(dp1411
g12
g29
sg14
S'Latin Modern Sans'
p1412
sg16
I400
sg17
g13
sg18
g13
sg19
S'/usr/share/fonts/texlive-lm/lmsans9-oblique.otf'
p1413
sg21
g22
sbag7
(g8
g9
NtRp1414
(dp1415
g12
g13
sg14
S'MnSymbol'
p1416
sg16
I400
sg17
g13
sg18
g13
sg19
S'/usr/share/fonts/texlive-mnsymbol/MnSymbol10.otf'
p1417
sg21
g22
sbag7
(g8
g9
NtRp1418
(dp1419
g12
g38
sg14
S'Iwona Cond Heavy'
p1420
sg16
I800
sg17
g52
sg18
g13
sg19
S'/usr/share/fonts/texlive-iwona/IwonaCondHeavy-Italic.otf'
p1421
sg21
g22
sbag7
(g8
g9
NtRp1422
(dp1423
g12
g13
sg14
S'CMU Sans Serif Demi Condensed'
p1424
sg16
I600
sg17
g52
sg18
g13
sg19
S'/usr/share/fonts/texlive-cm-unicode/cmunssdc.otf'
p1425
sg21
g22
sbag7
(g8
g9
NtRp1426
(dp1427
g12
g13
sg14
S'Latin Modern Roman Demi'
p1428
sg16
I600
sg17
g13
sg18
g13
sg19
S'/usr/share/fonts/texlive-lm/lmromandemi10-regular.otf'
p1429
sg21
g22
sbag7
(g8
g9
NtRp1430
(dp1431
g12
g38
sg14
S'Linux Libertine O'
p1432
sg16
I400
sg17
g13
sg18
g13
sg19
S'/usr/share/fonts/texlive-libertine/fxlri.otf'
p1433
sg21
g22
sbag7
(g8
g9
NtRp1434
(dp1435
g12
g13
sg14
S'Linux Biolinum Keyboard O'
p1436
sg16
I400
sg17
g13
sg18
g13
sg19
S'/usr/share/fonts/texlive-libertine/fxbk.otf'
p1437
sg21
g22
sbag7
(g8
g9
NtRp1438
(dp1439
g12
g13
sg14
S'GFS Solomos'
p1440
sg16
I400
sg17
g13
sg18
g13
sg19
S'/usr/share/fonts/texlive-gfssolomos/GFSSolomos.otf'
p1441
sg21
g22
sbag7
(g8
g9
NtRp1442
(dp1443
g12
g29
sg14
S'UM Typewriter'
p1444
sg16
I400
sg17
g13
sg18
g13
sg19
S'/usr/share/fonts/texlive-umtypewriter/UMTypewriter-Oblique.otf'
p1445
sg21
g22
sbag7
(g8
g9
NtRp1446
(dp1447
g12
g13
sg14
S'GFS Olga'
p1448
sg16
I400
sg17
g13
sg18
g13
sg19
S'/usr/share/fonts/texlive-gfsdidot/GFSOlga.otf'
p1449
sg21
g22
sbag7
(g8
g9
NtRp1450
(dp1451
g12
g29
sg14
S'CMU Sans Serif'
p1452
sg16
I400
sg17
g13
sg18
g13
sg19
S'/usr/share/fonts/texlive-cm-unicode/cmunsi.otf'
p1453
sg21
g22
sbag7
(g8
g9
NtRp1454
(dp1455
g12
g13
sg14
S'Latin Modern Roman'
p1456
sg16
I400
sg17
g13
sg18
g13
sg19
S'/usr/share/fonts/texlive-lm/lmroman6-regular.otf'
p1457
sg21
g22
sbag7
(g8
g9
NtRp1458
(dp1459
g12
g13
sg14
S'GFS Bodoni'
p1460
sg16
I400
sg17
g13
sg18
g13
sg19
S'/usr/share/fonts/texlive-gfsbodoni/GFSBodoni.otf'
p1461
sg21
g22
sbag7
(g8
g9
NtRp1462
(dp1463
g12
g38
sg14
S'Droid Serif'
p1464
sg16
I400
sg17
g13
sg18
g13
sg19
S'/usr/share/fonts/texlive-droid/DroidSerif-Italic.ttf'
p1465
sg21
g22
sbag7
(g8
g9
NtRp1466
(dp1467
g12
g13
sg14
S'Antykwa Poltawskiego'
p1468
sg16
I700
sg17
g13
sg18
g13
sg19
S'/usr/share/fonts/texlive-poltawski/antpoltsemiexpd-bold.otf'
p1469
sg21
g22
sbag7
(g8
g9
NtRp1470
(dp1471
g12
g38
sg14
S'Iwona Light'
p1472
sg16
I200
sg17
g13
sg18
g13
sg19
S'/usr/share/fonts/texlive-iwona/IwonaLight-Italic.otf'
p1473
sg21
g22
sbag7
(g8
g9
NtRp1474
(dp1475
g12
g13
sg14
S'Kurier Medium'
p1476
sg16
I500
sg17
g13
sg18
g13
sg19
S'/usr/share/fonts/texlive-kurier/KurierMedium-Regular.otf'
p1477
sg21
g22
sbag7
(g8
g9
NtRp1478
(dp1479
g12
g13
sg14
S'CMU Sans Serif'
p1480
sg16
I700
sg17
g13
sg18
g13
sg19
S'/usr/share/fonts/texlive-cm-unicode/cmunsx.otf'
p1481
sg21
g22
sbag7
(g8
g9
NtRp1482
(dp1483
g12
g13
sg14
S'Open Sans'
p1484
sg16
I200
sg17
g13
sg18
g13
sg19
S'/usr/share/fonts/texlive-opensans/OpenSans-Light.ttf'
p1485
sg21
g22
sbag7
(g8
g9
NtRp1486
(dp1487
g12
g29
sg14
S'Latin Modern Sans Quotation'
p1488
sg16
I700
sg17
g13
sg18
g13
sg19
S'/usr/share/fonts/texlive-lm/lmsansquot8-oblique.otf'
p1489
sg21
g22
sbag7
(g8
g9
NtRp1490
(dp1491
g12
g13
sg14
S'Semafor'
p1492
sg16
I400
sg17
g13
sg18
g13
sg19
S'/usr/share/fonts/texlive-semaphor/smfr10.otf'
p1493
sg21
g22
sbag7
(g8
g9
NtRp1494
(dp1495
g12
g13
sg14
S'Latin Modern Mono Light'
p1496
sg16
I400
sg17
g13
sg18
g13
sg19
S'/usr/share/fonts/texlive-lm/lmmonolt10-regular.otf'
p1497
sg21
g22
sbag7
(g8
g9
NtRp1498
(dp1499
g12
g13
sg14
S'PT Sans'
p1500
sg16
I400
sg17
g13
sg18
g13
sg19
S'/usr/share/fonts/texlive-paratype/PTS55F.ttf'
p1501
sg21
g22
sbag7
(g8
g9
NtRp1502
(dp1503
g12
g13
sg14
S'PT Serif Caption'
p1504
sg16
I400
sg17
g13
sg18
g13
sg19
S'/usr/share/fonts/texlive-paratype/PTZ55F.ttf'
p1505
sg21
g22
sbag7
(g8
g9
NtRp1506
(dp1507
g12
g38
sg14
S'PT Sans'
p1508
sg16
I400
sg17
g13
sg18
g13
sg19
S'/usr/share/fonts/texlive-paratype/PTS56F.ttf'
p1509
sg21
g22
sbag7
(g8
g9
NtRp1510
(dp1511
g12
g13
sg14
S'Latin Modern Roman Slanted'
p1512
sg16
I400
sg17
g13
sg18
g13
sg19
S'/usr/share/fonts/texlive-lm/lmromanslant9-regular.otf'
p1513
sg21
g22
sbag7
(g8
g9
NtRp1514
(dp1515
g12
g38
sg14
S'Antykwa Torunska Condensed'
p1516
sg16
I700
sg17
g52
sg18
g13
sg19
S'/usr/share/fonts/texlive-antt/AntykwaTorunskaCond-BoldItalic.otf'
p1517
sg21
g22
sbag7
(g8
g9
NtRp1518
(dp1519
g12
g13
sg14
S'XITS Math'
p1520
sg16
I400
sg17
g13
sg18
g13
sg19
S'/usr/share/fonts/texlive-xits/xits-math.otf'
p1521
sg21
g22
sbag7
(g8
g9
NtRp1522
(dp1523
g12
g13
sg14
S'Asana Math'
p1524
sg16
I400
sg17
g13
sg18
g13
sg19
S'/usr/share/fonts/texlive-asana-math/Asana-Math.otf'
p1525
sg21
g22
sbag7
(g8
g9
NtRp1526
(dp1527
g12
g29
sg14
S'FreeMono'
p1528
sg16
I700
sg17
g13
sg18
g13
sg19
S'/usr/share/fonts/texlive-gnu-freefont/FreeMonoBoldOblique.otf'
p1529
sg21
g22
sbag7
(g8
g9
NtRp1530
(dp1531
g12
g38
sg14
S'TeX Gyre Pagella'
p1532
sg16
I400
sg17
g13
sg18
g13
sg19
S'/usr/share/fonts/texlive-tex-gyre/texgyrepagella-italic.otf'
p1533
sg21
g22
sbag7
(g8
g9
NtRp1534
(dp1535
g12
g13
sg14
S'FreeSerif'
p1536
sg16
I700
sg17
g13
sg18
g13
sg19
S'/usr/share/fonts/texlive-gnu-freefont/FreeSerifBold.ttf'
p1537
sg21
g22
sbag7
(g8
g9
NtRp1538
(dp1539
g12
g13
sg14
S'Latin Modern Roman Slanted'
p1540
sg16
I400
sg17
g13
sg18
g13
sg19
S'/usr/share/fonts/texlive-lm/lmromanslant12-regular.otf'
p1541
sg21
g22
sbag7
(g8
g9
NtRp1542
(dp1543
g12
g13
sg14
S'Gentium Basic'
p1544
sg16
I700
sg17
g13
sg18
g13
sg19
S'/usr/share/fonts/texlive-gentium/GenBasB.ttf'
p1545
sg21
g22
sbag7
(g8
g9
NtRp1546
(dp1547
g12
g38
sg14
S'FreeSerif'
p1548
sg16
I700
sg17
g13
sg18
g13
sg19
S'/usr/share/fonts/texlive-gnu-freefont/FreeSerifBoldItalic.ttf'
p1549
sg21
g22
sbag7
(g8
g9
NtRp1550
(dp1551
g12
g13
sg14
S'Droid Sans Mono'
p1552
sg16
I400
sg17
g13
sg18
g13
sg19
S'/usr/share/fonts/texlive-droid/DroidSansMono.ttf'
p1553
sg21
g22
sbag7
(g8
g9
NtRp1554
(dp1555
g12
g38
sg14
S'Linux Libertine Slanted O'
p1556
sg16
I400
sg17
g13
sg18
g13
sg19
S'/usr/share/fonts/texlive-libertine/fxlro.otf'
p1557
sg21
g22
sbag7
(g8
g9
NtRp1558
(dp1559
g12
g38
sg14
S'Kurier Cond'
p1560
sg16
I400
sg17
g52
sg18
g13
sg19
S'/usr/share/fonts/texlive-kurier/KurierCond-Italic.otf'
p1561
sg21
g22
sbag7
(g8
g9
NtRp1562
(dp1563
g12
g13
sg14
S'PT Sans Caption'
p1564
sg16
I400
sg17
g13
sg18
g13
sg19
S'/usr/share/fonts/texlive-paratype/PTC55F.ttf'
p1565
sg21
g22
sbag7
(g8
g9
NtRp1566
(dp1567
g12
g13
sg14
S'Semafor'
p1568
sg16
I700
sg17
g13
sg18
g13
sg19
S'/usr/share/fonts/texlive-semaphor/smfeb10.otf'
p1569
sg21
g22
sbag7
(g8
g9
NtRp1570
(dp1571
g12
g13
sg14
S'Semafor'
p1572
sg16
I400
sg17
g13
sg18
g13
sg19
S'/usr/share/fonts/texlive-semaphor/smfptt10.otf'
p1573
sg21
g22
sbag7
(g8
g9
NtRp1574
(dp1575
g12
g13
sg14
S'Gentium Book Basic'
p1576
sg16
I700
sg17
g13
sg18
g13
sg19
S'/usr/share/fonts/texlive-gentium/GenBkBasB.ttf'
p1577
sg21
g22
sbag7
(g8
g9
NtRp1578
(dp1579
g12
g38
sg14
S'STIXNonUnicode'
p1580
sg16
I400
sg17
g13
sg18
g13
sg19
S'/usr/share/fonts/texlive-stix/STIXNonUniIta.otf'
p1581
sg21
g22
sbag7
(g8
g9
NtRp1582
(dp1583
g12
g38
sg14
S'Verdana'
p1584
sg16
I400
sg17
g13
sg18
g13
sg19
S'/usr/share/fonts/msttcore/verdanai.ttf'
p1585
sg21
g22
sbag7
(g8
g9
NtRp1586
(dp1587
g12
g38
sg14
S'Linux Libertine Display Slanted O'
p1588
sg16
I400
sg17
g13
sg18
g13
sg19
S'/usr/share/fonts/texlive-libertine/fxldro.otf'
p1589
sg21
g22
sbag7
(g8
g9
NtRp1590
(dp1591
g12
g13
sg14
S'PT Sans Caption'
p1592
sg16
I700
sg17
g13
sg18
g13
sg19
S'/usr/share/fonts/texlive-paratype/PTC75F.ttf'
p1593
sg21
g22
sbag7
(g8
g9
NtRp1594
(dp1595
g12
g38
sg14
S'CMU Typewriter Text'
p1596
sg16
I700
sg17
g13
sg18
g13
sg19
S'/usr/share/fonts/texlive-cm-unicode/cmuntx.otf'
p1597
sg21
g22
sbag7
(g8
g9
NtRp1598
(dp1599
g12
g13
sg14
S'Antykwa Poltawskiego'
p1600
sg16
I700
sg17
g52
sg18
g13
sg19
S'/usr/share/fonts/texlive-poltawski/antpoltsemicond-bold.otf'
p1601
sg21
g22
sbag7
(g8
g9
NtRp1602
(dp1603
g12
g13
sg14
S'TeX Gyre Pagella'
p1604
sg16
I700
sg17
g13
sg18
g13
sg19
S'/usr/share/fonts/texlive-tex-gyre/texgyrepagella-bold.otf'
p1605
sg21
g22
sbag7
(g8
g9
NtRp1606
(dp1607
g12
g38
sg14
S'TeX Gyre Cursor'
p1608
sg16
I700
sg17
g13
sg18
g13
sg19
S'/usr/share/fonts/texlive-tex-gyre/texgyrecursor-bolditalic.otf'
p1609
sg21
g22
sbag7
(g8
g9
NtRp1610
(dp1611
g12
g13
sg14
S'Antykwa Torunska Condensed'
p1612
sg16
I200
sg17
g52
sg18
g13
sg19
S'/usr/share/fonts/texlive-antt/AntykwaTorunskaCondLight-Regular.otf'
p1613
sg21
g22
sbag7
(g8
g9
NtRp1614
(dp1615
g12
g13
sg14
S'STIXSizeThreeSym'
p1616
sg16
I700
sg17
g13
sg18
g13
sg19
S'/usr/share/fonts/texlive-stix/STIXSizThreeSymBol.otf'
p1617
sg21
g22
sbag7
(g8
g9
NtRp1618
(dp1619
g12
g13
sg14
S'Punk Nova'
p1620
sg16
I700
sg17
g13
sg18
g13
sg19
S'/usr/share/fonts/texlive-punknova/punknova-bold.otf'
p1621
sg21
g22
sbag7
(g8
g9
NtRp1622
(dp1623
g12
g38
sg14
S'Georgia'
p1624
sg16
I400
sg17
g13
sg18
g13
sg19
S'/usr/share/fonts/msttcore/georgiai.ttf'
p1625
sg21
g22
sbag7
(g8
g9
NtRp1626
(dp1627
g12
g38
sg14
S'Antykwa Torunska'
p1628
sg16
I200
sg17
g13
sg18
g13
sg19
S'/usr/share/fonts/texlive-antt/AntykwaTorunskaLight-Italic.otf'
p1629
sg21
g22
sbag7
(g8
g9
NtRp1630
(dp1631
g12
g13
sg14
S'FreeMono'
p1632
sg16
I400
sg17
g13
sg18
g13
sg19
S'/usr/share/fonts/texlive-gnu-freefont/FreeMono.otf'
p1633
sg21
g22
sbag7
(g8
g9
NtRp1634
(dp1635
g12
g38
sg14
S'GFS Artemisia'
p1636
sg16
I400
sg17
g13
sg18
g13
sg19
S'/usr/share/fonts/texlive-gfsartemisia/GFSArtemisiaIt.otf'
p1637
sg21
g22
sbag7
(g8
g9
NtRp1638
(dp1639
g12
g38
sg14
S'Latin Modern Roman'
p1640
sg16
I700
sg17
g13
sg18
g13
sg19
S'/usr/share/fonts/texlive-lm/lmroman10-bolditalic.otf'
p1641
sg21
g22
sbag7
(g8
g9
NtRp1642
(dp1643
g12
g13
sg14
S'Latin Modern Typewriter'
p1644
sg16
I400
sg17
g13
sg18
g13
sg19
S'/usr/share/fonts/texlive-lmextra/lmtypewriter10-regular.ttf'
p1645
sg21
g22
sbag7
(g8
g9
NtRp1646
(dp1647
g12
g13
sg14
S'IPAMincho'
p1648
sg16
I400
sg17
g13
sg18
g13
sg19
S'/usr/share/fonts/texlive-ipaex/ipam.ttf'
p1649
sg21
g22
sbag7
(g8
g9
NtRp1650
(dp1651
g12
g13
sg14
S'Latin Modern Roman Dunhill'
p1652
sg16
I400
sg17
g13
sg18
g13
sg19
S'/usr/share/fonts/texlive-lm/lmromandunh10-regular.otf'
p1653
sg21
g22
sbag7
(g8
g9
NtRp1654
(dp1655
g12
g38
sg14
S'XITS'
p1656
sg16
I400
sg17
g13
sg18
g13
sg19
S'/usr/share/fonts/texlive-xits/xits-italic.otf'
p1657
sg21
g22
sbag7
(g8
g9
NtRp1658
(dp1659
g12
g13
sg14
S'Kurier Cond Heavy'
p1660
sg16
I800
sg17
g52
sg18
g13
sg19
S'/usr/share/fonts/texlive-kurier/KurierCondHeavy-Regular.otf'
p1661
sg21
g22
sbag7
(g8
g9
NtRp1662
(dp1663
g12
g13
sg14
S'Latin Modern Roman Slanted'
p1664
sg16
I400
sg17
g13
sg18
g13
sg19
S'/usr/share/fonts/texlive-lm/lmromanslant17-regular.otf'
p1665
sg21
g22
sbag7
(g8
g9
NtRp1666
(dp1667
g12
g13
sg14
S'texmfhome'
p1668
sg16
I400
sg17
g13
sg18
g13
sg19
S'/usr/share/fonts/texlive-context/texmfhome.otf'
p1669
sg21
g22
sbag7
(g8
g9
NtRp1670
(dp1671
g12
g13
sg14
S'Comfortaa'
p1672
sg16
I400
sg17
g13
sg18
g13
sg19
S'/usr/share/fonts/texlive-comfortaa/Comfortaa-Regular.ttf'
p1673
sg21
g22
sbag7
(g8
g9
NtRp1674
(dp1675
g12
g13
sg14
S'TeX Gyre Schola'
p1676
sg16
I700
sg17
g13
sg18
g13
sg19
S'/usr/share/fonts/texlive-tex-gyre/texgyreschola-bold.otf'
p1677
sg21
g22
sbag7
(g8
g9
NtRp1678
(dp1679
g12
g13
sg14
S'Latin Modern Mono Caps'
p1680
sg16
I400
sg17
g13
sg18
g13
sg19
S'/usr/share/fonts/texlive-lm/lmmonocaps10-regular.otf'
p1681
sg21
g22
sbag7
(g8
g9
NtRp1682
(dp1683
g12
g13
sg14
S'Junicode'
p1684
sg16
I400
sg17
g13
sg18
g13
sg19
S'/usr/share/fonts/texlive-junicode/Junicode-Regular.ttf'
p1685
sg21
g22
sbag7
(g8
g9
NtRp1686
(dp1687
g12
g13
sg14
S'CMU Bright'
p1688
sg16
I500
sg17
g13
sg18
g13
sg19
S'/usr/share/fonts/texlive-cm-unicode/cmunbmr.otf'
p1689
sg21
g22
sbag7
(g8
g9
NtRp1690
(dp1691
g12
g38
sg14
S'PT Sans'
p1692
sg16
I700
sg17
g13
sg18
g13
sg19
S'/usr/share/fonts/texlive-paratype/PTS76F.ttf'
p1693
sg21
g22
sbag7
(g8
g9
NtRp1694
(dp1695
g12
g13
sg14
S'ocrb10'
p1696
sg16
I400
sg17
g13
sg18
g13
sg19
S'/usr/share/fonts/texlive-ocr-b-outline/ocrb10.otf'
p1697
sg21
g22
sbag7
(g8
g9
NtRp1698
(dp1699
g12
g13
sg14
S'Open Sans'
p1700
sg16
I700
sg17
g13
sg18
g13
sg19
S'/usr/share/fonts/texlive-opensans/OpenSans-Semibold.ttf'
p1701
sg21
g22
sbag7
(g8
g9
NtRp1702
(dp1703
g12
g13
sg14
S'FreeMono'
p1704
sg16
I400
sg17
g13
sg18
g13
sg19
S'/usr/share/fonts/texlive-gnu-freefont/FreeMono.ttf'
p1705
sg21
g22
sbag7
(g8
g9
NtRp1706
(dp1707
g12
g13
sg14
S'Latin Modern Roman'
p1708
sg16
I400
sg17
g13
sg18
g13
sg19
S'/usr/share/fonts/texlive-lm/lmroman17-regular.otf'
p1709
sg21
g22
sbag7
(g8
g9
NtRp1710
(dp1711
g12
g38
sg14
S'GentiumAlt'
p1712
sg16
I400
sg17
g13
sg18
g13
sg19
S'/usr/share/fonts/texlive-gentium/GenAI102.ttf'
p1713
sg21
g22
sbag7
(g8
g9
NtRp1714
(dp1715
g12
g13
sg14
S'FreeSerif'
p1716
sg16
I400
sg17
g13
sg18
g13
sg19
S'/usr/share/fonts/texlive-gnu-freefont/FreeSerif.ttf'
p1717
sg21
g22
sbag7
(g8
g9
NtRp1718
(dp1719
g12
g38
sg14
S'Open Sans'
p1720
sg16
I200
sg17
g52
sg18
g13
sg19
S'/usr/share/fonts/texlive-opensans/OpenSans-CondLightItalic.ttf'
p1721
sg21
g22
sbag7
(g8
g9
NtRp1722
(dp1723
g12
g13
sg14
S'TeX Gyre Termes'
p1724
sg16
I700
sg17
g13
sg18
g13
sg19
S'/usr/share/fonts/texlive-tex-gyre/texgyretermes-bold.otf'
p1725
sg21
g22
sbag7
(g8
g9
NtRp1726
(dp1727
g12
g38
sg14
S'Junicode'
p1728
sg16
I700
sg17
g13
sg18
g13
sg19
S'/usr/share/fonts/texlive-junicode/Junicode-BoldItalic.ttf'
p1729
sg21
g22
sbag7
(g8
g9
NtRp1730
(dp1731
g12
g13
sg14
S'Droid Sans'
p1732
sg16
I400
sg17
g13
sg18
g13
sg19
S'/usr/share/fonts/texlive-droid/DroidSans.ttf'
p1733
sg21
g22
sbag7
(g8
g9
NtRp1734
(dp1735
g12
g13
sg14
S'STIXNonUnicode'
p1736
sg16
I700
sg17
g13
sg18
g13
sg19
S'/usr/share/fonts/texlive-stix/STIXNonUniBol.otf'
p1737
sg21
g22
sbag7
(g8
g9
NtRp1738
(dp1739
g12
g13
sg14
S'DejaVu Serif'
p1740
sg16
I400
sg17
g13
sg18
g13
sg19
S'/usr/share/fonts/dejavu/DejaVuSerif.ttf'
p1741
sg21
g22
sbag7
(g8
g9
NtRp1742
(dp1743
g12
g13
sg14
S'blsy'
p1744
sg16
I400
sg17
g13
sg18
g13
sg19
S'/usr/share/fonts/texlive-belleek/blsy.ttf'
p1745
sg21
g22
sbag7
(g8
g9
NtRp1746
(dp1747
g12
g13
sg14
S'MnSymbol'
p1748
sg16
I400
sg17
g13
sg18
g13
sg19
S'/usr/share/fonts/texlive-mnsymbol/MnSymbol6.otf'
p1749
sg21
g22
sbag7
(g8
g9
NtRp1750
(dp1751
g12
g13
sg14
S'CMU Serif Extra'
p1752
sg16
I700
sg17
g13
sg18
g13
sg19
S'/usr/share/fonts/texlive-cm-unicode/cmunrb.otf'
p1753
sg21
g22
sbag7
(g8
g9
NtRp1754
(dp1755
g12
g38
sg14
S'Antykwa Poltawskiego'
p1756
sg16
I700
sg17
g13
sg18
g13
sg19
S'/usr/share/fonts/texlive-poltawski/antpoltsemiexpd-bolditalic.otf'
p1757
sg21
g22
sbag7
(g8
g9
NtRp1758
(dp1759
g12
g13
sg14
S'ocrb8'
p1760
sg16
I400
sg17
g13
sg18
g13
sg19
S'/usr/share/fonts/texlive-ocr-b-outline/ocrb8.otf'
p1761
sg21
g22
sbag7
(g8
g9
NtRp1762
(dp1763
g12
g13
sg14
S'CMU Typewriter Text'
p1764
sg16
I700
sg17
g13
sg18
g13
sg19
S'/usr/share/fonts/texlive-cm-unicode/cmuntb.otf'
p1765
sg21
g22
sbag7
(g8
g9
NtRp1766
(dp1767
g12
g13
sg14
S'Iwona Medium'
p1768
sg16
I500
sg17
g13
sg18
g13
sg19
S'/usr/share/fonts/texlive-iwona/IwonaMedium-Regular.otf'
p1769
sg21
g22
sbag7
(g8
g9
NtRp1770
(dp1771
g12
g38
sg14
S'TeX Gyre Adventor'
p1772
sg16
I700
sg17
g13
sg18
g13
sg19
S'/usr/share/fonts/texlive-tex-gyre/texgyreadventor-bolditalic.otf'
p1773
sg21
g22
sbag7
(g8
g9
NtRp1774
(dp1775
g12
g13
sg14
S'STIXIntegralsUpD'
p1776
sg16
I700
sg17
g13
sg18
g13
sg19
S'/usr/share/fonts/texlive-stix/STIXIntUpDBol.otf'
p1777
sg21
g22
sbag7
(g8
g9
NtRp1778
(dp1779
g12
g13
sg14
S'Times New Roman'
p1780
sg16
I700
sg17
g13
sg18
g13
sg19
S'/usr/share/fonts/msttcore/timesbd.ttf'
p1781
sg21
g22
sbag7
(g8
g9
NtRp1782
(dp1783
g12
g13
sg14
S'Old Standard'
p1784
sg16
I700
sg17
g13
sg18
g13
sg19
S'/usr/share/fonts/texlive-oldstandard/OldStandard-Bold.otf'
p1785
sg21
g22
sbag7
(g8
g9
NtRp1786
(dp1787
g12
g13
sg14
S'Gentium'
p1788
sg16
I400
sg17
g13
sg18
g13
sg19
S'/usr/share/fonts/texlive-gentium/GenR102.ttf'
p1789
sg21
g22
sbag7
(g8
g9
NtRp1790
(dp1791
g12
g13
sg14
S'STIXIntegralsD'
p1792
sg16
I400
sg17
g13
sg18
g13
sg19
S'/usr/share/fonts/texlive-stix/STIXIntDReg.otf'
p1793
sg21
g22
sbag7
(g8
g9
NtRp1794
(dp1795
g12
g13
sg14
S'STIXSizeThreeSym'
p1796
sg16
I400
sg17
g13
sg18
g13
sg19
S'/usr/share/fonts/texlive-stix/STIXSizThreeSymReg.otf'
p1797
sg21
g22
sbag7
(g8
g9
NtRp1798
(dp1799
g12
g38
sg14
S'Lato'
p1800
sg16
I700
sg17
g13
sg18
g13
sg19
S'/usr/share/fonts/texlive-lato/Lato-BoldItalic.ttf'
p1801
sg21
g22
sbag7
(g8
g9
NtRp1802
(dp1803
g12
g13
sg14
S'FreeSans'
p1804
sg16
I700
sg17
g13
sg18
g13
sg19
S'/usr/share/fonts/texlive-gnu-freefont/FreeSansBold.ttf'
p1805
sg21
g22
sbag7
(g8
g9
NtRp1806
(dp1807
g12
g38
sg14
S'Verdana'
p1808
sg16
I700
sg17
g13
sg18
g13
sg19
S'/usr/share/fonts/msttcore/verdanaz.ttf'
p1809
sg21
g22
sbag7
(g8
g9
NtRp1810
(dp1811
g12
g13
sg14
S'Semafor'
p1812
sg16
I700
sg17
g13
sg18
g13
sg19
S'/usr/share/fonts/texlive-semaphor/smfb10.otf'
p1813
sg21
g22
sbag7
(g8
g9
NtRp1814
(dp1815
g12
g38
sg14
S'STIXGeneral'
p1816
sg16
I700
sg17
g13
sg18
g13
sg19
S'/usr/share/fonts/texlive-stix/STIXGeneralBolIta.otf'
p1817
sg21
g22
sbag7
(g8
g9
NtRp1818
(dp1819
g12
g38
sg14
S'Semafor'
p1820
sg16
I400
sg17
g13
sg18
g13
sg19
S'/usr/share/fonts/texlive-semaphor/smfesl10.otf'
p1821
sg21
g22
sbag7
(g8
g9
NtRp1822
(dp1823
g12
g13
sg14
S'Latin Modern Roman'
p1824
sg16
I700
sg17
g13
sg18
g13
sg19
S'/usr/share/fonts/texlive-lm/lmroman5-bold.otf'
p1825
sg21
g22
sbag7
(g8
g9
NtRp1826
(dp1827
g12
g29
sg14
S'Latin Modern Roman Demi'
p1828
sg16
I600
sg17
g13
sg18
g13
sg19
S'/usr/share/fonts/texlive-lm/lmromandemi10-oblique.otf'
p1829
sg21
g22
sbag7
(g8
g9
NtRp1830
(dp1831
g12
g13
sg14
S'MnSymbol'
p1832
sg16
I700
sg17
g13
sg18
g13
sg19
S'/usr/share/fonts/texlive-mnsymbol/MnSymbol-Bold10.otf'
p1833
sg21
g22
sbag7
(g8
g9
NtRp1834
(dp1835
g12
g38
sg14
S'TeX Gyre Pagella'
p1836
sg16
I700
sg17
g13
sg18
g13
sg19
S'/usr/share/fonts/texlive-tex-gyre/texgyrepagella-bolditalic.otf'
p1837
sg21
g22
sbag7
(g8
g9
NtRp1838
(dp1839
g12
g38
sg14
S'Kurier Cond Medium'
p1840
sg16
I500
sg17
g52
sg18
g13
sg19
S'/usr/share/fonts/texlive-kurier/KurierCondMedium-Italic.otf'
p1841
sg21
g22
sbag7
(g8
g9
NtRp1842
(dp1843
g12
g38
sg14
S'Latin Modern Mono'
p1844
sg16
I400
sg17
g13
sg18
g13
sg19
S'/usr/share/fonts/texlive-lm/lmmono10-italic.otf'
p1845
sg21
g22
sbag7
(g8
g9
NtRp1846
(dp1847
g12
g38
sg14
S'Iwona'
p1848
sg16
I700
sg17
g13
sg18
g13
sg19
S'/usr/share/fonts/texlive-iwona/Iwona-BoldItalic.otf'
p1849
sg21
g22
sbag7
(g8
g9
NtRp1850
(dp1851
g12
g38
sg14
S'STIXGeneral'
p1852
sg16
I400
sg17
g13
sg18
g13
sg19
S'/usr/share/fonts/texlive-stix/STIXGeneralItalic.otf'
p1853
sg21
g22
sbag7
(g8
g9
NtRp1854
(dp1855
g12
g13
sg14
S'Lato'
p1856
sg16
I400
sg17
g13
sg18
g13
sg19
S'/usr/share/fonts/texlive-lato/Lato-Regular.ttf'
p1857
sg21
g22
sbag7
(g8
g9
NtRp1858
(dp1859
g12
g13
sg14
S'Philokalia'
p1860
sg16
I400
sg17
g13
sg18
g13
sg19
S'/usr/share/fonts/texlive-philokalia/Philokalia-Regular.otf'
p1861
sg21
g22
sbag7
(g8
g9
NtRp1862
(dp1863
g12
g38
sg14
S'Old Standard'
p1864
sg16
I400
sg17
g13
sg18
g13
sg19
S'/usr/share/fonts/texlive-oldstandard/OldStandard-Italic.otf'
p1865
sg21
g22
sbag7
(g8
g9
NtRp1866
(dp1867
g12
g13
sg14
S'Kurier'
p1868
sg16
I400
sg17
g13
sg18
g13
sg19
S'/usr/share/fonts/texlive-kurier/Kurier-Regular.otf'
p1869
sg21
g22
sbag7
(g8
g9
NtRp1870
(dp1871
g12
g38
sg14
S'Antykwa Poltawskiego Light'
p1872
sg16
I700
sg17
g52
sg18
g13
sg19
S'/usr/share/fonts/texlive-poltawski/antpoltltsemicond-bolditalic.otf'
p1873
sg21
g22
sbag7
(g8
g9
NtRp1874
(dp1875
g12
g13
sg14
S'MnSymbol'
p1876
sg16
I400
sg17
g13
sg18
g13
sg19
S'/usr/share/fonts/texlive-mnsymbol/MnSymbol5.otf'
p1877
sg21
g22
sbag7
(g8
g9
NtRp1878
(dp1879
g12
g13
sg14
S'Lato'
p1880
sg16
I900
sg17
g13
sg18
g13
sg19
S'/usr/share/fonts/texlive-lato/Lato-Black.ttf'
p1881
sg21
g22
sbag7
(g8
g9
NtRp1882
(dp1883
g12
g13
sg14
S'Semafor'
p1884
sg16
I400
sg17
g13
sg18
g13
sg19
S'/usr/share/fonts/texlive-semaphor/smftt10.otf'
p1885
sg21
g22
sbag7
(g8
g9
NtRp1886
(dp1887
g12
g13
sg14
S'IPAexGothic'
p1888
sg16
I400
sg17
g13
sg18
g13
sg19
S'/usr/share/fonts/texlive-ipaex/ipaexg.ttf'
p1889
sg21
g22
sbag7
(g8
g9
NtRp1890
(dp1891
g12
g13
sg14
S'GFS Artemisia'
p1892
sg16
I700
sg17
g13
sg18
g13
sg19
S'/usr/share/fonts/texlive-gfsartemisia/GFSArtemisiaBold.otf'
p1893
sg21
g22
sbag7
(g8
g9
NtRp1894
(dp1895
g12
g13
sg14
S'Iwona Light'
p1896
sg16
I200
sg17
g13
sg18
g13
sg19
S'/usr/share/fonts/texlive-iwona/IwonaLight-Regular.otf'
p1897
sg21
g22
sbag7
(g8
g9
NtRp1898
(dp1899
g12
g38
sg14
S'Antykwa Torunska Condensed'
p1900
sg16
I500
sg17
g52
sg18
g13
sg19
S'/usr/share/fonts/texlive-antt/AntykwaTorunskaCondMed-Italic.otf'
p1901
sg21
g22
sbag7
(g8
g9
NtRp1902
(dp1903
g12
g13
sg14
S'Latin Modern Roman'
p1904
sg16
I700
sg17
g13
sg18
g13
sg19
S'/usr/share/fonts/texlive-lm/lmroman6-bold.otf'
p1905
sg21
g22
sbag7
(g8
g9
NtRp1906
(dp1907
g12
g38
sg14
S'CMU Serif Extra'
p1908
sg16
I700
sg17
g13
sg18
g13
sg19
S'/usr/share/fonts/texlive-cm-unicode/cmunbl.otf'
p1909
sg21
g22
sbag7
(g8
g9
NtRp1910
(dp1911
g12
g29
sg14
S'CMU Typewriter Text'
p1912
sg16
I400
sg17
g13
sg18
g13
sg19
S'/usr/share/fonts/texlive-cm-unicode/cmunst.otf'
p1913
sg21
g22
sbag7
(g8
g9
NtRp1914
(dp1915
g12
g13
sg14
S'TeX Gyre Adventor'
p1916
sg16
I700
sg17
g13
sg18
g13
sg19
S'/usr/share/fonts/texlive-tex-gyre/texgyreadventor-bold.otf'
p1917
sg21
g22
sbag7
(g8
g9
NtRp1918
(dp1919
g12
g38
sg14
S'FreeSerif'
p1920
sg16
I400
sg17
g13
sg18
g13
sg19
S'/usr/share/fonts/texlive-gnu-freefont/FreeSerifItalic.ttf'
p1921
sg21
g22
sbag7
(g8
g9
NtRp1922
(dp1923
g12
g38
sg14
S'TeX Gyre Cursor'
p1924
sg16
I400
sg17
g13
sg18
g13
sg19
S'/usr/share/fonts/texlive-tex-gyre/texgyrecursor-italic.otf'
p1925
sg21
g22
sbag7
(g8
g9
NtRp1926
(dp1927
g12
g13
sg14
S'Gentium Basic'
p1928
sg16
I400
sg17
g13
sg18
g13
sg19
S'/usr/share/fonts/texlive-gentium/GenBasR.ttf'
p1929
sg21
g22
sbag7
(g8
g9
NtRp1930
(dp1931
g12
g38
sg14
S'Open Sans'
p1932
sg16
I700
sg17
g13
sg18
g13
sg19
S'/usr/share/fonts/texlive-opensans/OpenSans-SemiboldItalic.ttf'
p1933
sg21
g22
sbag7
(g8
g9
NtRp1934
(dp1935
g12
g38
sg14
S'Linux Libertine O'
p1936
sg16
I700
sg17
g13
sg18
g13
sg19
S'/usr/share/fonts/texlive-libertine/fxlzi.otf'
p1937
sg21
g22
sbag7
(g8
g9
NtRp1938
(dp1939
g12
g38
sg14
S'Iwona Cond Medium'
p1940
sg16
I500
sg17
g52
sg18
g13
sg19
S'/usr/share/fonts/texlive-iwona/IwonaCondMedium-Italic.otf'
p1941
sg21
g22
sbag7
(g8
g9
NtRp1942
(dp1943
g12
g29
sg14
S'Latin Modern Roman Caps'
p1944
sg16
I500
sg17
g13
sg18
g13
sg19
S'/usr/share/fonts/texlive-lm/lmromancaps10-oblique.otf'
p1945
sg21
g22
sbag7
(g8
g9
NtRp1946
(dp1947
g12
g13
sg14
S'ocrb7'
p1948
sg16
I400
sg17
g13
sg18
g13
sg19
S'/usr/share/fonts/texlive-ocr-b-outline/ocrb7.otf'
p1949
sg21
g22
sbag7
(g8
g9
NtRp1950
(dp1951
g12
g13
sg14
S'MnSymbol'
p1952
sg16
I700
sg17
g13
sg18
g13
sg19
S'/usr/share/fonts/texlive-mnsymbol/MnSymbol-Bold6.otf'
p1953
sg21
g22
sbag7
(g8
g9
NtRp1954
(dp1955
g12
g13
sg14
S'GFS Complutum'
p1956
sg16
I400
sg17
g13
sg18
g13
sg19
S'/usr/share/fonts/texlive-gfscomplutum/GFSPolyglot.otf'
p1957
sg21
g22
sbag7
(g8
g9
NtRp1958
(dp1959
g12
g38
sg14
S'CMU Serif'
p1960
sg16
I700
sg17
g13
sg18
g13
sg19
S'/usr/share/fonts/texlive-cm-unicode/cmunbi.otf'
p1961
sg21
g22
sbag7
(g8
g9
NtRp1962
(dp1963
g12
g13
sg14
S'STIXVariants'
p1964
sg16
I700
sg17
g13
sg18
g13
sg19
S'/usr/share/fonts/texlive-stix/STIXVarBol.otf'
p1965
sg21
g22
sbag7
(g8
g9
NtRp1966
(dp1967
g12
g13
sg14
S'Latin Modern Roman Slanted'
p1968
sg16
I400
sg17
g13
sg18
g13
sg19
S'/usr/share/fonts/texlive-lm/lmromanslant10-regular.otf'
p1969
sg21
g22
sbag7
(g8
g9
NtRp1970
(dp1971
g12
g13
sg14
S'Latin Modern Sans Demi Cond'
p1972
sg16
I600
sg17
g52
sg18
g13
sg19
S'/usr/share/fonts/texlive-lm/lmsansdemicond10-regular.otf'
p1973
sg21
g22
sbag7
(g8
g9
NtRp1974
(dp1975
g12
g13
sg14
S'Antykwa Torunska'
p1976
sg16
I700
sg17
g13
sg18
g13
sg19
S'/usr/share/fonts/texlive-antt/AntykwaTorunska-Bold.otf'
p1977
sg21
g22
sbag7
(g8
g9
NtRp1978
(dp1979
g12
g13
sg14
S'Linux Libertine O'
p1980
sg16
I700
sg17
g13
sg18
g13
sg19
S'/usr/share/fonts/texlive-libertine/fxlz.otf'
p1981
sg21
g22
sbag7
(g8
g9
NtRp1982
(dp1983
g12
g38
sg14
S'TeX Gyre Termes'
p1984
sg16
I400
sg17
g13
sg18
g13
sg19
S'/usr/share/fonts/texlive-tex-gyre/texgyretermes-italic.otf'
p1985
sg21
g22
sbag7
(g8
g9
NtRp1986
(dp1987
g12
g29
sg14
S'FreeSans'
p1988
sg16
I400
sg17
g13
sg18
g13
sg19
S'/usr/share/fonts/texlive-gnu-freefont/FreeSansOblique.otf'
p1989
sg21
g22
sbag7
(g8
g9
NtRp1990
(dp1991
g12
g13
sg14
S'CMU Typewriter Text Variable Width'
p1992
sg16
I400
sg17
g13
sg18
g13
sg19
S'/usr/share/fonts/texlive-cm-unicode/cmunvt.otf'
p1993
sg21
g22
sbag7
(g8
g9
NtRp1994
(dp1995
g12
g13
sg14
S'Semafor'
p1996
sg16
I400
sg17
g13
sg18
g13
sg19
S'/usr/share/fonts/texlive-semaphor/smfett10.otf'
p1997
sg21
g22
sbag7
(g8
g9
NtRp1998
(dp1999
g12
g38
sg14
S'Kurier Cond'
p2000
sg16
I700
sg17
g52
sg18
g13
sg19
S'/usr/share/fonts/texlive-kurier/KurierCond-BoldItalic.otf'
p2001
sg21
g22
sbag7
(g8
g9
NtRp2002
(dp2003
g12
g38
sg14
S'CMU Serif'
p2004
sg16
I400
sg17
g13
sg18
g13
sg19
S'/usr/share/fonts/texlive-cm-unicode/cmunti.otf'
p2005
sg21
g22
sbag7
(g8
g9
NtRp2006
(dp2007
g12
g13
sg14
S'TeX Gyre Cursor'
p2008
sg16
I400
sg17
g13
sg18
g13
sg19
S'/usr/share/fonts/texlive-tex-gyre/texgyrecursor-regular.otf'
p2009
sg21
g22
sbag7
(g8
g9
NtRp2010
(dp2011
g12
g13
sg14
S'ocrb5'
p2012
sg16
I400
sg17
g13
sg18
g13
sg19
S'/usr/share/fonts/texlive-ocr-b-outline/ocrb5.otf'
p2013
sg21
g22
sbag7
(g8
g9
NtRp2014
(dp2015
g12
g13
sg14
S'Linux Libertine Display O'
p2016
sg16
I400
sg17
g13
sg18
g13
sg19
S'/usr/share/fonts/texlive-libertine/fxldr.otf'
p2017
sg21
g22
sbag7
(g8
g9
NtRp2018
(dp2019
g12
g13
sg14
S'Lato'
p2020
sg16
I700
sg17
g13
sg18
g13
sg19
S'/usr/share/fonts/texlive-lato/Lato-Bold.ttf'
p2021
sg21
g22
sbag7
(g8
g9
NtRp2022
(dp2023
g12
g38
sg14
S'Lato'
p2024
sg16
I400
sg17
g13
sg18
g13
sg19
S'/usr/share/fonts/texlive-lato/Lato-Italic.ttf'
p2025
sg21
g22
sbag7
(g8
g9
NtRp2026
(dp2027
g12
g13
sg14
S'UM Typewriter'
p2028
sg16
I700
sg17
g13
sg18
g13
sg19
S'/usr/share/fonts/texlive-umtypewriter/UMTypewriter-Bold.otf'
p2029
sg21
g22
sbag7
(g8
g9
NtRp2030
(dp2031
g12
g13
sg14
S'CMU Serif'
p2032
sg16
I500
sg17
g13
sg18
g13
sg19
S'/usr/share/fonts/texlive-cm-unicode/cmunrm.otf'
p2033
sg21
g22
sbag7
(g8
g9
NtRp2034
(dp2035
g12
g13
sg14
S'Antykwa Poltawskiego Light'
p2036
sg16
I700
sg17
g13
sg18
g13
sg19
S'/usr/share/fonts/texlive-poltawski/antpoltlt-bold.otf'
p2037
sg21
g22
sbag7
(g8
g9
NtRp2038
(dp2039
g12
g38
sg14
S'TeX Gyre Termes'
p2040
sg16
I700
sg17
g13
sg18
g13
sg19
S'/usr/share/fonts/texlive-tex-gyre/texgyretermes-bolditalic.otf'
p2041
sg21
g22
sbag7
(g8
g9
NtRp2042
(dp2043
g12
g13
sg14
S'Chess Alpha Diagram'
p2044
sg16
I400
sg17
g13
sg18
g13
sg19
S'/usr/share/fonts/texlive-skaknew/AlphaDia.otf'
p2045
sg21
g22
sbag7
(g8
g9
NtRp2046
(dp2047
g12
g13
sg14
S'MnSymbol'
p2048
sg16
I700
sg17
g13
sg18
g13
sg19
S'/usr/share/fonts/texlive-mnsymbol/MnSymbol-Bold9.otf'
p2049
sg21
g22
sbag7
(g8
g9
NtRp2050
(dp2051
g12
g13
sg14
S'Antykwa Poltawskiego Light'
p2052
sg16
I700
sg17
g13
sg18
g13
sg19
S'/usr/share/fonts/texlive-poltawski/antpoltltexpd-bold.otf'
p2053
sg21
g22
sbag7
(g8
g9
NtRp2054
(dp2055
g12
g13
sg14
S'GFS Artemisia'
p2056
sg16
I400
sg17
g13
sg18
g13
sg19
S'/usr/share/fonts/texlive-gfsartemisia/GFSArtemisia.otf'
p2057
sg21
g22
sbag7
(g8
g9
NtRp2058
(dp2059
g12
g13
sg14
S'STIXIntegralsUpD'
p2060
sg16
I400
sg17
g13
sg18
g13
sg19
S'/usr/share/fonts/texlive-stix/STIXIntUpDReg.otf'
p2061
sg21
g22
sbag7
(g8
g9
NtRp2062
(dp2063
g12
g13
sg14
S'Arial Black'
p2064
sg16
I900
sg17
g13
sg18
g13
sg19
S'/usr/share/fonts/msttcore/ariblk.ttf'
p2065
sg21
g22
sbag7
(g8
g9
NtRp2066
(dp2067
g12
g13
sg14
S'Open Sans'
p2068
sg16
I700
sg17
g13
sg18
g13
sg19
S'/usr/share/fonts/texlive-opensans/OpenSans-Bold.ttf'
p2069
sg21
g22
sbag7
(g8
g9
NtRp2070
(dp2071
g12
g38
sg14
S'CMU Typewriter Text'
p2072
sg16
I400
sg17
g13
sg18
g13
sg19
S'/usr/share/fonts/texlive-cm-unicode/cmunit.otf'
p2073
sg21
g22
sbag7
(g8
g9
NtRp2074
(dp2075
g12
g13
sg14
S'XITS'
p2076
sg16
I400
sg17
g13
sg18
g13
sg19
S'/usr/share/fonts/texlive-xits/xits-regular.otf'
p2077
sg21
g22
sbag7
(g8
g9
NtRp2078
(dp2079
g12
g38
sg14
S'Antykwa Poltawskiego Light'
p2080
sg16
I200
sg17
g52
sg18
g13
sg19
S'/usr/share/fonts/texlive-poltawski/antpoltltsemicond-italic.otf'
p2081
sg21
g22
sbag7
(g8
g9
NtRp2082
(dp2083
g12
g13
sg14
S'MnSymbol'
p2084
sg16
I700
sg17
g13
sg18
g13
sg19
S'/usr/share/fonts/texlive-mnsymbol/MnSymbol-Bold8.otf'
p2085
sg21
g22
sbag7
(g8
g9
NtRp2086
(dp2087
g12
g13
sg14
S'Trebuchet MS'
p2088
sg16
I700
sg17
g13
sg18
g13
sg19
S'/usr/share/fonts/msttcore/trebucbd.ttf'
p2089
sg21
g22
sbag7
(g8
g9
NtRp2090
(dp2091
g12
g38
sg14
S'CMU Concrete'
p2092
sg16
I400
sg17
g13
sg18
g13
sg19
S'/usr/share/fonts/texlive-cm-unicode/cmunoti.otf'
p2093
sg21
g22
sbag7
(g8
g9
NtRp2094
(dp2095
g12
g38
sg14
S'Antykwa Poltawskiego'
p2096
sg16
I700
sg17
g52
sg18
g13
sg19
S'/usr/share/fonts/texlive-poltawski/antpoltsemicond-bolditalic.otf'
p2097
sg21
g22
sbag7
(g8
g9
NtRp2098
(dp2099
g12
g13
sg14
S'Andale Mono'
p2100
sg16
I400
sg17
g13
sg18
g13
sg19
S'/usr/share/fonts/msttcore/andalemo.ttf'
p2101
sg21
g22
sbag7
(g8
g9
NtRp2102
(dp2103
g12
g13
sg14
S'TeX Gyre Pagella'
p2104
sg16
I400
sg17
g13
sg18
g13
sg19
S'/usr/share/fonts/texlive-tex-gyre/texgyrepagella-regular.otf'
p2105
sg21
g22
sbag7
(g8
g9
NtRp2106
(dp2107
g12
g38
sg14
S'UM Typewriter'
p2108
sg16
I700
sg17
g13
sg18
g13
sg19
S'/usr/share/fonts/texlive-umtypewriter/UMTypewriter-BoldItalic.otf'
p2109
sg21
g22
sbag7
(g8
g9
NtRp2110
(dp2111
g12
g13
sg14
S'STIXSizeTwoSym'
p2112
sg16
I700
sg17
g13
sg18
g13
sg19
S'/usr/share/fonts/texlive-stix/STIXSizTwoSymBol.otf'
p2113
sg21
g22
sbasS'defaultFamily'
p2114
(dp2115
S'afm'
p2116
S'Helvetica'
p2117
sS'ttf'
p2118
S'Bitstream Vera Sans'
p2119
ssS'ttffiles'
p2120
(lp2121
S'/usr/share/fonts/texlive-gfsdidot/GFSDidotBold.otf'
p2122
aS'/usr/share/fonts/texlive-libertine/fxbsb.otf'
p2123
aS'/usr/share/fonts/texlive-lm/lmsans17-oblique.otf'
p2124
aS'/usr/share/fonts/texlive-kurier/KurierLight-Regular.otf'
p2125
aS'/usr/share/fonts/texlive-poltawski/antpoltltsemiexpd-italic.otf'
p2126
aS'/usr/share/fonts/texlive-gnu-freefont/FreeMonoBold.ttf'
p2127
aS'/usr/share/fonts/texlive-lm/lmmonocaps10-oblique.otf'
p2128
aS'/usr/share/fonts/texlive-antt/AntykwaTorunskaCondMed-Regular.otf'
p2129
aS'/usr/share/fonts/texlive-gnu-freefont/FreeMonoOblique.otf'
p2130
aS'/usr/share/fonts/texlive-poltawski/antpoltltsemiexpd-bolditalic.otf'
p2131
aS'/usr/share/fonts/texlive-gfsdidot/GFSDidot.otf'
p2132
aS'/usr/share/fonts/texlive-paratype/PTF75F.ttf'
p2133
aS'/usr/share/fonts/texlive-stix/STIXSizOneSymBol.otf'
p2134
aS'/usr/share/fonts/texlive-fonetika/FonetikaDaniaPallaeBold.ttf'
p2135
aS'/usr/share/fonts/texlive-cm-unicode/cmunbbx.otf'
p2136
aS'/usr/share/fonts/dejavu/DejaVuSans-Bold.ttf'
p2137
aS'/usr/share/fonts/texlive-poltawski/antpoltltsemiexpd-regular.otf'
p2138
aS'/usr/share/fonts/texlive-tex-gyre/texgyreheroscn-regular.otf'
p2139
aS'/usr/share/fonts/texlive-junicode/Junicode-Italic.ttf'
p2140
aS'/usr/share/fonts/texlive-lm/lmmonoprop10-regular.otf'
p2141
aS'/usr/share/fonts/texlive-semaphor/smfpb10.otf'
p2142
aS'/usr/share/fonts/texlive-antt/AntykwaTorunskaCondLight-Italic.otf'
p2143
aS'/usr/share/fonts/texlive-tex-gyre/texgyrebonum-bold.otf'
p2144
aS'/usr/share/fonts/texlive-poltawski/antpoltltcond-regular.otf'
p2145
aS'/usr/share/fonts/texlive-lm/lmroman7-italic.otf'
p2146
aS'/usr/share/fonts/texlive-oldstandard/OldStandard-Regular.otf'
p2147
aS'/usr/share/fonts/texlive-tex-gyre/texgyreheros-regular.otf'
p2148
aS'/usr/share/fonts/texlive-iwona/IwonaCond-Regular.otf'
p2149
aS'/usr/share/fonts/texlive-poltawski/antpoltltcond-bold.otf'
p2150
aS'/usr/share/fonts/texlive-asana-math/Asana-Math.ttf'
p2151
aS'/usr/share/fonts/texlive-lm/lmsans10-boldoblique.otf'
p2152
aS'/usr/share/fonts/texlive-cm-unicode/cmunbxo.otf'
p2153
aS'/usr/share/fonts/texlive-tex-gyre/texgyreheroscn-bold.otf'
p2154
aS'/usr/share/fonts/texlive-poltawski/antpoltltsemicond-regular.otf'
p2155
aS'/usr/share/fonts/texlive-iwona/IwonaCondMedium-Regular.otf'
p2156
aS'/usr/share/fonts/texlive-lm/lmroman8-regular.otf'
p2157
aS'/usr/share/fonts/texlive-poltawski/antpoltltcond-bolditalic.otf'
p2158
aS'/usr/share/fonts/texlive-gnu-freefont/FreeSans.otf'
p2159
aS'/usr/share/fonts/texlive-poltawski/antpoltltexpd-bolditalic.otf'
p2160
aS'/usr/share/fonts/texlive-cm-unicode/cmunui.otf'
p2161
aS'/usr/share/fonts/texlive-lm/lmmonoslant10-regular.otf'
p2162
aS'/usr/share/fonts/texlive-skaknew/SkakNew-FigurineBold.otf'
p2163
aS'/usr/share/fonts/texlive-gnu-freefont/FreeSerifBold.otf'
p2164
aS'/usr/share/fonts/texlive-dejavu/DejaVuSansMono-BoldOblique.ttf'
p2165
aS'/usr/share/fonts/texlive-dejavu/DejaVuSerifCondensed-Bold.ttf'
p2166
aS'/usr/share/fonts/texlive-stix/STIXIntDBol.otf'
p2167
aS'/usr/share/fonts/texlive-iwona/IwonaHeavy-Italic.otf'
p2168
aS'/usr/share/fonts/texlive-cm-unicode/cmunobx.otf'
p2169
aS'/usr/share/fonts/msttcore/georgia.ttf'
p2170
aS'/usr/share/fonts/texlive-poltawski/antpolt-bold.otf'
p2171
aS'/usr/share/fonts/texlive-poltawski/antpoltexpd-regular.otf'
p2172
aS'/usr/share/fonts/texlive-tex-gyre/texgyreadventor-regular.otf'
p2173
aS'/usr/share/fonts/texlive-libertine/fxlbo.otf'
p2174
aS'/usr/share/fonts/texlive-droid/DroidSerif-BoldItalic.ttf'
p2175
aS'/usr/share/fonts/texlive-poltawski/antpoltexpd-bold.otf'
p2176
aS'/usr/share/fonts/texlive-stix/STIXIntUpReg.otf'
p2177
aS'/usr/share/fonts/texlive-opensans/OpenSans-ExtraBold.ttf'
p2178
aS'/usr/share/fonts/texlive-tex-gyre/texgyreheroscn-bolditalic.otf'
p2179
aS'/usr/share/fonts/texlive-inconsolata/Inconsolata.otf'
p2180
aS'/usr/share/fonts/texlive-dejavu/DejaVuSansCondensed-BoldOblique.ttf'
p2181
aS'/usr/share/fonts/msttcore/courbi.ttf'
p2182
aS'/usr/share/fonts/dejavu/DejaVuSerif-Italic.ttf'
p2183
aS'/usr/share/fonts/texlive-gfsbodoni/GFSBodoniBold.otf'
p2184
aS'/usr/share/fonts/texlive-poltawski/antpoltsemicond-italic.otf'
p2185
aS'/usr/share/fonts/msttcore/verdana.ttf'
p2186
aS'/usr/share/fonts/texlive-dejavu/DejaVuSansCondensed-Bold.ttf'
p2187
aS'/usr/share/fonts/texlive-xits/xits-bolditalic.otf'
p2188
aS'/usr/share/fonts/texlive-libertine/fxboi.otf'
p2189
aS'/usr/share/fonts/texlive-iwona/IwonaCond-Bold.otf'
p2190
aS'/usr/share/fonts/texlive-lm/lmroman10-bold.otf'
p2191
aS'/usr/share/fonts/msttcore/arialbi.ttf'
p2192
aS'/usr/share/fonts/texlive-tex-gyre/texgyreheros-bolditalic.otf'
p2193
aS'/usr/share/fonts/texlive-lm/lmromanslant8-regular.otf'
p2194
aS'/usr/share/fonts/texlive-poltawski/antpoltsemiexpd-italic.otf'
p2195
aS'/usr/share/fonts/texlive-stix/STIXIntUpBol.otf'
p2196
aS'/usr/share/fonts/texlive-semaphor/smfpbsl10.otf'
p2197
aS'/usr/share/fonts/texlive-kurier/KurierCondMedium-Regular.otf'
p2198
aS'/usr/share/fonts/texlive-iwona/IwonaCond-BoldItalic.otf'
p2199
aS'/usr/share/fonts/texlive-gfsneohellenic/GFSNeohellenicBold.otf'
p2200
aS'/usr/share/fonts/texlive-cm-unicode/cmunorm.otf'
p2201
aS'/usr/share/fonts/texlive-opensans/OpenSans-CondLight.ttf'
p2202
aS'/usr/share/fonts/texlive-kurier/Kurier-BoldItalic.otf'
p2203
aS'/usr/share/fonts/texlive-belleek/blex.ttf'
p2204
aS'/usr/share/fonts/texlive-stix/STIXIntUpSmBol.otf'
p2205
aS'/usr/share/fonts/texlive-gnu-freefont/FreeSerifBoldItalic.otf'
p2206
aS'/usr/share/fonts/texlive-antt/AntykwaTorunskaLight-Regular.otf'
p2207
aS'/usr/share/fonts/texlive-lm/lmmonoproplt10-regular.otf'
p2208
aS'/usr/share/fonts/texlive-lm/lmsans8-regular.otf'
p2209
aS'/usr/share/fonts/texlive-lm/lmmonoltcond10-oblique.otf'
p2210
aS'/usr/share/fonts/texlive-kurier/KurierCondLight-Italic.otf'
p2211
aS'/usr/share/fonts/texlive-tex-gyre/texgyreschola-italic.otf'
p2212
aS'/usr/share/fonts/texlive-mnsymbol/MnSymbol-Bold7.otf'
p2213
aS'/usr/share/fonts/texlive-semaphor/smfebsl10.otf'
p2214
aS'/usr/share/fonts/dejavu/DejaVuSans-BoldOblique.ttf'
p2215
aS'/usr/share/fonts/texlive-lm/lmsans8-oblique.otf'
p2216
aS'/usr/share/fonts/msttcore/arial.ttf'
p2217
aS'/usr/share/fonts/msttcore/cour.ttf'
p2218
aS'/usr/share/fonts/texlive-poltawski/antpoltltcond-italic.otf'
p2219
aS'/usr/share/fonts/texlive-ocr-b-outline/ocrb9.otf'
p2220
aS'/usr/share/fonts/texlive-cm-unicode/cmunbsr.otf'
p2221
aS'/usr/share/fonts/texlive-libertine/fxbro.otf'
p2222
aS'/usr/share/fonts/texlive-kurier/KurierHeavy-Italic.otf'
p2223
aS'/usr/share/fonts/msttcore/trebucit.ttf'
p2224
aS'/usr/share/fonts/texlive-gnu-freefont/FreeSerif.otf'
p2225
aS'/usr/share/fonts/texlive-lm/lmsans10-regular.otf'
p2226
aS'/usr/share/fonts/texlive-belleek/rblmi.ttf'
p2227
aS'/usr/share/fonts/texlive-poltawski/antpoltcond-bold.otf'
p2228
aS'/usr/share/fonts/texlive-libertine/fxbs.otf'
p2229
aS'/usr/share/fonts/msttcore/couri.ttf'
p2230
aS'/usr/share/fonts/texlive-lm/lmroman12-italic.otf'
p2231
aS'/usr/share/fonts/texlive-lm/lmmonoproplt10-boldoblique.otf'
p2232
aS'/usr/share/fonts/texlive-poltawski/antpoltcond-bolditalic.otf'
p2233
aS'/usr/share/fonts/texlive-poltawski/antpoltexpd-bolditalic.otf'
p2234
aS'/usr/share/fonts/texlive-stix/STIXIntUpSmReg.otf'
p2235
aS'/usr/share/fonts/texlive-gnu-freefont/FreeSansOblique.ttf'
p2236
aS'/usr/share/fonts/texlive-opensans/OpenSans-Italic.ttf'
p2237
aS'/usr/share/fonts/texlive-punknova/punknova-boldslanted.otf'
p2238
aS'/usr/share/fonts/texlive-iwona/Iwona-Italic.otf'
p2239
aS'/usr/share/fonts/msttcore/trebuc.ttf'
p2240
aS'/usr/share/fonts/texlive-lm/lmmonolt10-oblique.otf'
p2241
aS'/usr/share/fonts/texlive-stix/STIXIntSmBol.otf'
p2242
aS'/usr/share/fonts/texlive-lm/lmsans12-regular.otf'
p2243
aS'/usr/share/fonts/texlive-lm/lmsansquot8-regular.otf'
p2244
aS'/usr/share/fonts/texlive-lato/Lato-BlackItalic.ttf'
p2245
aS'/usr/share/fonts/texlive-cm-unicode/cmunvi.otf'
p2246
aS'/usr/share/fonts/texlive-antt/AntykwaTorunskaCond-Regular.otf'
p2247
aS'/usr/share/fonts/texlive-gnu-freefont/FreeMonoBold.otf'
p2248
aS'/usr/share/fonts/texlive-lm/lmmono9-regular.otf'
p2249
aS'/usr/share/fonts/texlive-tex-gyre/texgyrebonum-bolditalic.otf'
p2250
aS'/usr/share/fonts/texlive-tex-gyre/texgyrebonum-italic.otf'
p2251
aS'/usr/share/fonts/texlive-lm/lmmono8-regular.otf'
p2252
aS'/usr/share/fonts/texlive-lm/lmroman8-bold.otf'
p2253
aS'/usr/share/fonts/texlive-iwona/IwonaCondLight-Italic.otf'
p2254
aS'/usr/share/fonts/texlive-gnu-freefont/FreeSans.ttf'
p2255
aS'/usr/share/fonts/texlive-paratype/PTF56F.ttf'
p2256
aS'/usr/share/fonts/texlive-cm-unicode/cmunbtl.otf'
p2257
aS'/usr/share/fonts/texlive-antt/AntykwaTorunskaCond-Bold.otf'
p2258
aS'/usr/share/fonts/texlive-paratype/PTS75F.ttf'
p2259
aS'/usr/share/fonts/dejavu/DejaVuSerifCondensed-BoldItalic.ttf'
p2260
aS'/usr/share/fonts/texlive-lm/lmmonoprop10-oblique.otf'
p2261
aS'/usr/share/fonts/texlive-gentium/GenBasBI.ttf'
p2262
aS'/usr/share/fonts/msttcore/ariali.ttf'
p2263
aS'/usr/share/fonts/texlive-libertine/fxbbo.otf'
p2264
aS'/usr/share/fonts/texlive-lm/lmroman12-bold.otf'
p2265
aS'/usr/share/fonts/texlive-dejavu/DejaVuSans-ExtraLight.ttf'
p2266
aS'/usr/share/fonts/texlive-lm/lmroman7-regular.otf'
p2267
aS'/usr/share/fonts/msttcore/georgiaz.ttf'
p2268
aS'/usr/share/fonts/texlive-kurier/Kurier-Bold.otf'
p2269
aS'/usr/share/fonts/texlive-mnsymbol/MnSymbol12.otf'
p2270
aS'/usr/share/fonts/texlive-cm-unicode/cmunbx.otf'
p2271
aS'/usr/share/fonts/texlive-kurier/KurierCond-Regular.otf'
p2272
aS'/usr/share/fonts/texlive-libertine/fxlb.otf'
p2273
aS'/usr/share/fonts/texlive-cm-unicode/cmunbto.otf'
p2274
aS'/usr/share/fonts/texlive-tex-gyre/texgyreadventor-italic.otf'
p2275
aS'/usr/share/fonts/texlive-cyklop/cyklop-italic.otf'
p2276
aS'/usr/share/fonts/dejavu/DejaVuSansCondensed.ttf'
p2277
aS'/usr/share/fonts/texlive-lm/lmroman12-regular.otf'
p2278
aS'/usr/share/fonts/texlive-tex-gyre/texgyrebonum-regular.otf'
p2279
aS'/usr/share/fonts/texlive-gentium/GenAR102.ttf'
p2280
aS'/usr/share/fonts/texlive-dejavu/DejaVuSans-Oblique.ttf'
p2281
aS'/usr/share/fonts/texlive-stix/STIXNonUniBolIta.otf'
p2282
aS'/usr/share/fonts/texlive-libertine/fxli.otf'
p2283
aS'/usr/share/fonts/dejavu/DejaVuSansCondensed-Oblique.ttf'
p2284
aS'/usr/share/fonts/texlive-poltawski/antpoltltexpd-regular.otf'
p2285
aS'/usr/share/fonts/texlive-tex-gyre/texgyreheros-italic.otf'
p2286
aS'/usr/share/fonts/texlive-poltawski/antpoltcond-italic.otf'
p2287
aS'/usr/share/fonts/texlive-cm-unicode/cmunobi.otf'
p2288
aS'/usr/share/fonts/texlive-libertine/fxbr.otf'
p2289
aS'/usr/share/fonts/texlive-semaphor/smfbsl10.otf'
p2290
aS'/usr/share/fonts/texlive-cm-unicode/cmunss.otf'
p2291
aS'/usr/share/fonts/msttcore/tahoma.ttf'
p2292
aS'/usr/share/fonts/texlive-lm/lmmono12-regular.otf'
p2293
aS'/usr/share/fonts/texlive-semaphor/smfpr10.otf'
p2294
aS'/usr/share/fonts/texlive-kurier/KurierCond-Bold.otf'
p2295
aS'/usr/share/fonts/texlive-antt/AntykwaTorunskaCond-Italic.otf'
p2296
aS'/usr/share/fonts/texlive-iwona/IwonaCondLight-Regular.otf'
p2297
aS'/usr/share/fonts/texlive-droid/DroidSans-Bold.ttf'
p2298
aS'/usr/share/fonts/texlive-lm/lmroman9-regular.otf'
p2299
aS'/usr/share/fonts/texlive-gentium/GenBkBasI.ttf'
p2300
aS'/usr/share/fonts/texlive-lm/lmmonoltcond10-regular.otf'
p2301
aS'/usr/share/fonts/texlive-antt/AntykwaTorunskaMed-Regular.otf'
p2302
aS'/usr/share/fonts/texlive-dejavu/DejaVuSerif-Italic.ttf'
p2303
aS'/usr/share/fonts/texlive-paratype/PTF76F.ttf'
p2304
aS'/usr/share/fonts/texlive-kurier/KurierHeavy-Regular.otf'
p2305
aS'/usr/share/fonts/texlive-lm/lmmono10-regular.otf'
p2306
aS'/usr/share/fonts/texlive-tex-gyre/texgyreschola-bolditalic.otf'
p2307
aS'/usr/share/fonts/texlive-gentium/GenBkBasBI.ttf'
p2308
aS'/usr/share/fonts/texlive-phaistos/Phaistos.otf'
p2309
aS'/usr/share/fonts/texlive-stix/STIXSizOneSymReg.otf'
p2310
aS'/usr/share/fonts/texlive-lm/lmroman10-italic.otf'
p2311
aS'/usr/share/fonts/texlive-iwona/IwonaMedium-Italic.otf'
p2312
aS'/usr/share/fonts/texlive-tex-gyre/texgyretermes-regular.otf'
p2313
aS'/usr/share/fonts/texlive-lm/lmsansdemicond10-oblique.otf'
p2314
aS'/usr/share/fonts/texlive-semaphor/smfer10.otf'
p2315
aS'/usr/share/fonts/texlive-mnsymbol/MnSymbol-Bold12.otf'
p2316
aS'/usr/share/fonts/dejavu/DejaVuSansMono-BoldOblique.ttf'
p2317
aS'/usr/share/fonts/texlive-dejavu/DejaVuSansMono-Bold.ttf'
p2318
aS'/usr/share/fonts/texlive-paratype/PTZ56F.ttf'
p2319
aS'/usr/share/fonts/texlive-gfsartemisia/GFSArtemisiaBoldIt.otf'
p2320
aS'/usr/share/fonts/texlive-lm/lmromancaps10-regular.otf'
p2321
aS'/usr/share/fonts/texlive-lm/lmsans17-regular.otf'
p2322
aS'/usr/share/fonts/texlive-lm/lmroman7-bold.otf'
p2323
aS'/usr/share/fonts/texlive-opensans/OpenSans-BoldItalic.ttf'
p2324
aS'/usr/share/fonts/texlive-lm/lmmonoproplt10-oblique.otf'
p2325
aS'/usr/share/fonts/texlive-lm/lmroman8-italic.otf'
p2326
aS'/usr/share/fonts/texlive-mnsymbol/MnSymbol-Bold5.otf'
p2327
aS'/usr/share/fonts/texlive-dejavu/DejaVuSansMono-Oblique.ttf'
p2328
aS'/usr/share/fonts/msttcore/comicbd.ttf'
p2329
aS'/usr/share/fonts/texlive-lm/lmroman10-regular.otf'
p2330
aS'/usr/share/fonts/texlive-opensans/OpenSans-LightItalic.ttf'
p2331
aS'/usr/share/fonts/texlive-xits/xits-bold.otf'
p2332
aS'/usr/share/fonts/texlive-lm/lmroman9-italic.otf'
p2333
aS'/usr/share/fonts/texlive-libertine/fxlzo.otf'
p2334
aS'/usr/share/fonts/texlive-antt/AntykwaTorunska-BoldItalic.otf'
p2335
aS'/usr/share/fonts/texlive-marvosym/marvosym.ttf'
p2336
aS'/usr/share/fonts/texlive-mnsymbol/MnSymbol9.otf'
p2337
aS'/usr/share/fonts/texlive-punknova/punknova-regular.otf'
p2338
aS'/usr/share/fonts/texlive-poltawski/antpoltsemiexpd-regular.otf'
p2339
aS'/usr/share/fonts/texlive-stix/STIXNonUni.otf'
p2340
aS'/usr/share/fonts/texlive-lm/lmmath-regular.otf'
p2341
aS'/usr/share/fonts/texlive-poltawski/antpoltcond-regular.otf'
p2342
aS'/usr/share/fonts/msttcore/comic.ttf'
p2343
aS'/usr/share/fonts/texlive-tex-gyre/texgyreschola-regular.otf'
p2344
aS'/usr/share/fonts/texlive-lm/lmsans10-oblique.otf'
p2345
aS'/usr/share/fonts/texlive-poltawski/antpoltltexpd-italic.otf'
p2346
aS'/usr/share/fonts/msttcore/courbd.ttf'
p2347
aS'/usr/share/fonts/texlive-gfsdidot/GFSDidotBoldItalic.otf'
p2348
aS'/usr/share/fonts/texlive-kurier/KurierCondHeavy-Italic.otf'
p2349
aS'/usr/share/fonts/texlive-tex-gyre/texgyreheros-bold.otf'
p2350
aS'/usr/share/fonts/texlive-libertine/fxbb.otf'
p2351
aS'/usr/share/fonts/texlive-skaknew/SkakNew-Figurine.otf'
p2352
aS'/usr/share/fonts/msttcore/trebucbi.ttf'
p2353
aS'/usr/share/fonts/texlive-antt/AntykwaTorunskaMed-Italic.otf'
p2354
aS'/usr/share/fonts/texlive-libertine/fxlbi.otf'
p2355
aS'/usr/share/fonts/dejavu/DejaVuSansCondensed-Bold.ttf'
p2356
aS'/usr/share/fonts/texlive-iwona/Iwona-Regular.otf'
p2357
aS'/usr/share/fonts/texlive-mnsymbol/MnSymbol8.otf'
p2358
aS'/usr/share/fonts/texlive-gfsbodoni/GFSBodoniIt.otf'
p2359
aS'/usr/share/fonts/texlive-gentium/GenI102.ttf'
p2360
aS'/usr/share/fonts/texlive-stix/STIXGeneral.otf'
p2361
aS'/usr/share/fonts/texlive-poltawski/antpoltlt-bolditalic.otf'
p2362
aS'/usr/share/fonts/texlive-poltawski/antpoltlt-italic.otf'
p2363
aS'/usr/share/fonts/texlive-lm/lmsans10-bold.otf'
p2364
aS'/usr/share/fonts/texlive-libertine/fxbob.otf'
p2365
aS'/usr/share/fonts/texlive-kurier/KurierMedium-Italic.otf'
p2366
aS'/usr/share/fonts/texlive-semaphor/smfsl10.otf'
p2367
aS'/usr/share/fonts/dejavu/DejaVuSerifCondensed-Italic.ttf'
p2368
aS'/usr/share/fonts/texlive-cm-unicode/cmuntt.otf'
p2369
aS'/usr/share/fonts/texlive-lm/lmmonolt10-boldoblique.otf'
p2370
aS'/usr/share/fonts/texlive-dejavu/DejaVuSans.ttf'
p2371
aS'/usr/share/fonts/texlive-poltawski/antpoltsemicond-regular.otf'
p2372
aS'/usr/share/fonts/msttcore/timesbi.ttf'
p2373
aS'/usr/share/fonts/texlive-cm-unicode/cmunbso.otf'
p2374
aS'/usr/share/fonts/texlive-comfortaa/Comfortaa-Light.ttf'
p2375
aS'/usr/share/fonts/texlive-dejavu/DejaVuSans-BoldOblique.ttf'
p2376
aS'/usr/share/fonts/texlive-mnsymbol/MnSymbol7.otf'
p2377
aS'/usr/share/fonts/texlive-skaknew/SkakNew-DiagramT.otf'
p2378
aS'/usr/share/fonts/msttcore/timesi.ttf'
p2379
aS'/usr/share/fonts/texlive-gnu-freefont/FreeSerifItalic.otf'
p2380
aS'/usr/share/fonts/texlive-paratype/PTF55F.ttf'
p2381
aS'/usr/share/fonts/msttcore/impact.ttf'
p2382
aS'/usr/share/fonts/msttcore/verdanab.ttf'
p2383
aS'/usr/share/fonts/texlive-lm/lmsans12-oblique.otf'
p2384
aS'/usr/share/fonts/texlive-ocr-b-outline/ocrb6.otf'
p2385
aS'/usr/share/fonts/texlive-dejavu/DejaVuSerif-Bold.ttf'
p2386
aS'/usr/share/fonts/texlive-lato/Lato-Hairline.ttf'
p2387
aS'/usr/share/fonts/texlive-lato/Lato-HairlineItalic.ttf'
p2388
aS'/usr/share/fonts/texlive-ipaex/ipag.ttf'
p2389
aS'/usr/share/fonts/texlive-paratype/PTN57F.ttf'
p2390
aS'/usr/share/fonts/texlive-iwona/IwonaCond-Italic.otf'
p2391
aS'/usr/share/fonts/texlive-poltawski/antpolt-regular.otf'
p2392
aS'/usr/share/fonts/texlive-kurier/Kurier-Italic.otf'
p2393
aS'/usr/share/fonts/texlive-lm/lmroman5-regular.otf'
p2394
aS'/usr/share/fonts/texlive-libertine/fxbo.otf'
p2395
aS'/usr/share/fonts/texlive-gentium/GenBkBasR.ttf'
p2396
aS'/usr/share/fonts/texlive-libertine/fxbsi.otf'
p2397
aS'/usr/share/fonts/msttcore/times.ttf'
p2398
aS'/usr/share/fonts/texlive-iwona/IwonaHeavy-Regular.otf'
p2399
aS'/usr/share/fonts/texlive-poltawski/antpoltlt-regular.otf'
p2400
aS'/usr/share/fonts/texlive-lm/lmroman9-bold.otf'
p2401
aS'/usr/share/fonts/texlive-droid/DroidSerif-Regular.ttf'
p2402
aS'/usr/share/fonts/texlive-gfsneohellenic/GFSNeohellenicBoldIt.otf'
p2403
aS'/usr/share/fonts/texlive-lm/lmromanunsl10-regular.otf'
p2404
aS'/usr/share/fonts/texlive-dejavu/DejaVuSans-Bold.ttf'
p2405
aS'/usr/share/fonts/msttcore/arialbd.ttf'
p2406
aS'/usr/share/fonts/texlive-lm/lmromanslant10-bold.otf'
p2407
aS'/usr/share/fonts/texlive-libertine/fxlr.otf'
p2408
aS'/usr/share/fonts/texlive-tex-gyre/texgyreheroscn-italic.otf'
p2409
aS'/usr/share/fonts/texlive-gnu-freefont/FreeSansBold.otf'
p2410
aS'/usr/share/fonts/texlive-cm-unicode/cmunso.otf'
p2411
aS'/usr/share/fonts/texlive-lm/lmmonolt10-bold.otf'
p2412
aS'/usr/share/fonts/texlive-poltawski/antpoltexpd-italic.otf'
p2413
aS'/usr/share/fonts/texlive-gfsneohellenic/GFSNeohellenic.otf'
p2414
aS'/usr/share/fonts/texlive-antt/AntykwaTorunska-Italic.otf'
p2415
aS'/usr/share/fonts/texlive-umtypewriter/UMTypewriter-Regular.otf'
p2416
aS'/usr/share/fonts/dejavu/DejaVuSerifCondensed.ttf'
p2417
aS'/usr/share/fonts/texlive-gnu-freefont/FreeSansBoldOblique.otf'
p2418
aS'/usr/share/fonts/texlive-lato/Lato-Light.ttf'
p2419
aS'/usr/share/fonts/texlive-libertine/fxbri.otf'
p2420
aS'/usr/share/fonts/texlive-poltawski/antpoltltsemiexpd-bold.otf'
p2421
aS'/usr/share/fonts/dejavu/DejaVuSerif-Bold.ttf'
p2422
aS'/usr/share/fonts/texlive-gfsdidot/GFSDidotItalic.otf'
p2423
aS'/usr/share/fonts/texlive-paratype/PTN77F.ttf'
p2424
aS'/usr/share/fonts/texlive-lm/lmsans9-regular.otf'
p2425
aS'/usr/share/fonts/texlive-kurier/KurierLight-Italic.otf'
p2426
aS'/usr/share/fonts/texlive-poltawski/antpolt-bolditalic.otf'
p2427
aS'/usr/share/fonts/texlive-poltawski/antpolt-italic.otf'
p2428
aS'/usr/share/fonts/texlive-cm-unicode/cmunci.otf'
p2429
aS'/usr/share/fonts/dejavu/DejaVuSans-Oblique.ttf'
p2430
aS'/usr/share/fonts/texlive-gnu-freefont/FreeSansBoldOblique.ttf'
p2431
aS'/usr/share/fonts/texlive-cm-unicode/cmunsl.otf'
p2432
aS'/usr/share/fonts/texlive-stix/STIXGeneralBol.otf'
p2433
aS'/usr/share/fonts/texlive-cyklop/cyklop-regular.otf'
p2434
aS'/usr/share/fonts/texlive-stix/STIXSizFiveSymReg.otf'
p2435
aS'/usr/share/fonts/texlive-iwona/Iwona-Bold.otf'
p2436
aS'/usr/share/fonts/msttcore/georgiab.ttf'
p2437
aS'/usr/share/fonts/msttcore/webdings.ttf'
p2438
aS'/usr/share/fonts/texlive-fonetika/FonetikaDaniaIwonaeBold.ttf'
p2439
aS'/usr/share/fonts/dejavu/DejaVuSans-ExtraLight.ttf'
p2440
aS'/usr/share/fonts/texlive-gnu-freefont/FreeMonoOblique.ttf'
p2441
aS'/usr/share/fonts/texlive-gentium/GenBasI.ttf'
p2442
aS'/usr/share/fonts/texlive-stix/STIXSizFourSymBol.otf'
p2443
aS'/usr/share/fonts/texlive-punknova/punknova-slanted.otf'
p2444
aS'/usr/share/fonts/texlive-ipaex/ipaexm.ttf'
p2445
aS'/usr/share/fonts/texlive-lm/lmsansquot8-bold.otf'
p2446
aS'/usr/share/fonts/texlive-droid/DroidSerif-Bold.ttf'
p2447
aS'/usr/share/fonts/texlive-semaphor/smfpsl10.otf'
p2448
aS'/usr/share/fonts/texlive-stix/STIXVar.otf'
p2449
aS'/usr/share/fonts/dejavu/DejaVuSansMono.ttf'
p2450
aS'/usr/share/fonts/texlive-poltawski/antpoltltsemicond-bold.otf'
p2451
aS'/usr/share/fonts/texlive-junicode/Junicode-Bold.ttf'
p2452
aS'/usr/share/fonts/texlive-comfortaa/Comfortaa-Bold.ttf'
p2453
aS'/usr/share/fonts/texlive-antt/AntykwaTorunska-Regular.otf'
p2454
aS'/usr/share/fonts/texlive-stix/STIXSizTwoSymReg.otf'
p2455
aS'/usr/share/fonts/texlive-lm/lmsansquot8-boldoblique.otf'
p2456
aS'/usr/share/fonts/texlive-lm/lmromandunh10-oblique.otf'
p2457
aS'/usr/share/fonts/texlive-gfsbodoni/GFSBodoniBoldIt.otf'
p2458
aS'/usr/share/fonts/texlive-kurier/KurierCondLight-Regular.otf'
p2459
aS'/usr/share/fonts/texlive-tex-gyre/texgyrechorus-mediumitalic.otf'
p2460
aS'/usr/share/fonts/texlive-umtypewriter/UMTypewriter-Italic.otf'
p2461
aS'/usr/share/fonts/texlive-gfsneohellenic/GFSNeohellenicIt.otf'
p2462
aS'/usr/share/fonts/texlive-lm/lmmonoproplt10-bold.otf'
p2463
aS'/usr/share/fonts/texlive-opensans/OpenSans-Regular.ttf'
p2464
aS'/usr/share/fonts/texlive-fonetika/FonetikaDaniaIwonaeRegular.ttf'
p2465
aS'/usr/share/fonts/texlive-iwona/IwonaCondHeavy-Regular.otf'
p2466
aS'/usr/share/fonts/texlive-stix/STIXSizFourSymReg.otf'
p2467
aS'/usr/share/fonts/dejavu/DejaVuSansMono-Oblique.ttf'
p2468
aS'/usr/share/fonts/texlive-skaknew/SkakNew-Diagram.otf'
p2469
aS'/usr/share/fonts/texlive-gnu-freefont/FreeMonoBoldOblique.ttf'
p2470
aS'/usr/share/fonts/texlive-tex-gyre/texgyrecursor-bold.otf'
p2471
aS'/usr/share/fonts/texlive-lato/Lato-LightItalic.ttf'
p2472
aS'/usr/share/fonts/texlive-fonetika/FonetikaDaniaPallaeRegular.ttf'
p2473
aS'/usr/share/fonts/texlive-dejavu/DejaVuSerif-BoldItalic.ttf'
p2474
aS'/usr/share/fonts/texlive-stix/STIXIntSmReg.otf'
p2475
aS'/usr/share/fonts/texlive-opensans/OpenSans-ExtraBoldItalic.ttf'
p2476
aS'/usr/share/fonts/texlive-cm-unicode/cmunbmo.otf'
p2477
aS'/usr/share/fonts/texlive-lm/lmsans9-oblique.otf'
p2478
aS'/usr/share/fonts/texlive-mnsymbol/MnSymbol10.otf'
p2479
aS'/usr/share/fonts/texlive-iwona/IwonaCondHeavy-Italic.otf'
p2480
aS'/usr/share/fonts/dejavu/DejaVuSansCondensed-BoldOblique.ttf'
p2481
aS'/usr/share/fonts/texlive-cm-unicode/cmunssdc.otf'
p2482
aS'/usr/share/fonts/texlive-lm/lmromandemi10-regular.otf'
p2483
aS'/usr/share/fonts/texlive-libertine/fxlri.otf'
p2484
aS'/usr/share/fonts/texlive-libertine/fxbk.otf'
p2485
aS'/usr/share/fonts/texlive-gfssolomos/GFSSolomos.otf'
p2486
aS'/usr/share/fonts/texlive-umtypewriter/UMTypewriter-Oblique.otf'
p2487
aS'/usr/share/fonts/texlive-gfsdidot/GFSOlga.otf'
p2488
aS'/usr/share/fonts/texlive-cm-unicode/cmunsi.otf'
p2489
aS'/usr/share/fonts/texlive-lm/lmroman6-regular.otf'
p2490
aS'/usr/share/fonts/texlive-gfsbodoni/GFSBodoni.otf'
p2491
aS'/usr/share/fonts/texlive-droid/DroidSerif-Italic.ttf'
p2492
aS'/usr/share/fonts/texlive-dejavu/DejaVuSansMono.ttf'
p2493
aS'/usr/share/fonts/texlive-poltawski/antpoltsemiexpd-bold.otf'
p2494
aS'/usr/share/fonts/texlive-iwona/IwonaLight-Italic.otf'
p2495
aS'/usr/share/fonts/texlive-kurier/KurierMedium-Regular.otf'
p2496
aS'/usr/share/fonts/texlive-cm-unicode/cmunsx.otf'
p2497
aS'/usr/share/fonts/texlive-opensans/OpenSans-Light.ttf'
p2498
aS'/usr/share/fonts/texlive-lm/lmsansquot8-oblique.otf'
p2499
aS'/usr/share/fonts/texlive-semaphor/smfr10.otf'
p2500
aS'/usr/share/fonts/texlive-lm/lmmonolt10-regular.otf'
p2501
aS'/usr/share/fonts/texlive-paratype/PTS55F.ttf'
p2502
aS'/usr/share/fonts/texlive-paratype/PTZ55F.ttf'
p2503
aS'/usr/share/fonts/texlive-paratype/PTS56F.ttf'
p2504
aS'/usr/share/fonts/texlive-dejavu/DejaVuSansCondensed-Oblique.ttf'
p2505
aS'/usr/share/fonts/texlive-lm/lmromanslant9-regular.otf'
p2506
aS'/usr/share/fonts/texlive-antt/AntykwaTorunskaCond-BoldItalic.otf'
p2507
aS'/usr/share/fonts/texlive-xits/xits-math.otf'
p2508
aS'/usr/share/fonts/texlive-asana-math/Asana-Math.otf'
p2509
aS'/usr/share/fonts/texlive-gnu-freefont/FreeMonoBoldOblique.otf'
p2510
aS'/usr/share/fonts/texlive-tex-gyre/texgyrepagella-italic.otf'
p2511
aS'/usr/share/fonts/texlive-gnu-freefont/FreeSerifBold.ttf'
p2512
aS'/usr/share/fonts/texlive-lm/lmromanslant12-regular.otf'
p2513
aS'/usr/share/fonts/texlive-gentium/GenBasB.ttf'
p2514
aS'/usr/share/fonts/dejavu/DejaVuSans.ttf'
p2515
aS'/usr/share/fonts/texlive-gnu-freefont/FreeSerifBoldItalic.ttf'
p2516
aS'/usr/share/fonts/texlive-droid/DroidSansMono.ttf'
p2517
aS'/usr/share/fonts/texlive-libertine/fxlro.otf'
p2518
aS'/usr/share/fonts/texlive-kurier/KurierCond-Italic.otf'
p2519
aS'/usr/share/fonts/texlive-paratype/PTC55F.ttf'
p2520
aS'/usr/share/fonts/texlive-semaphor/smfeb10.otf'
p2521
aS'/usr/share/fonts/texlive-semaphor/smfptt10.otf'
p2522
aS'/usr/share/fonts/texlive-gentium/GenBkBasB.ttf'
p2523
aS'/usr/share/fonts/texlive-stix/STIXNonUniIta.otf'
p2524
aS'/usr/share/fonts/msttcore/verdanai.ttf'
p2525
aS'/usr/share/fonts/texlive-libertine/fxldro.otf'
p2526
aS'/usr/share/fonts/texlive-paratype/PTC75F.ttf'
p2527
aS'/usr/share/fonts/texlive-cm-unicode/cmuntx.otf'
p2528
aS'/usr/share/fonts/texlive-poltawski/antpoltsemicond-bold.otf'
p2529
aS'/usr/share/fonts/texlive-tex-gyre/texgyrepagella-bold.otf'
p2530
aS'/usr/share/fonts/texlive-tex-gyre/texgyrecursor-bolditalic.otf'
p2531
aS'/usr/share/fonts/texlive-antt/AntykwaTorunskaCondLight-Regular.otf'
p2532
aS'/usr/share/fonts/texlive-stix/STIXSizThreeSymBol.otf'
p2533
aS'/usr/share/fonts/texlive-punknova/punknova-bold.otf'
p2534
aS'/usr/share/fonts/msttcore/georgiai.ttf'
p2535
aS'/usr/share/fonts/texlive-antt/AntykwaTorunskaLight-Italic.otf'
p2536
aS'/usr/share/fonts/texlive-gnu-freefont/FreeMono.otf'
p2537
aS'/usr/share/fonts/texlive-gfsartemisia/GFSArtemisiaIt.otf'
p2538
aS'/usr/share/fonts/texlive-lm/lmroman10-bolditalic.otf'
p2539
aS'/usr/share/fonts/texlive-lmextra/lmtypewriter10-regular.ttf'
p2540
aS'/usr/share/fonts/texlive-ipaex/ipam.ttf'
p2541
aS'/usr/share/fonts/texlive-lm/lmromandunh10-regular.otf'
p2542
aS'/usr/share/fonts/texlive-xits/xits-italic.otf'
p2543
aS'/usr/share/fonts/texlive-kurier/KurierCondHeavy-Regular.otf'
p2544
aS'/usr/share/fonts/texlive-lm/lmromanslant17-regular.otf'
p2545
aS'/usr/share/fonts/texlive-context/texmfhome.otf'
p2546
aS'/usr/share/fonts/texlive-comfortaa/Comfortaa-Regular.ttf'
p2547
aS'/usr/share/fonts/texlive-tex-gyre/texgyreschola-bold.otf'
p2548
aS'/usr/share/fonts/texlive-lm/lmmonocaps10-regular.otf'
p2549
aS'/usr/share/fonts/texlive-junicode/Junicode-Regular.ttf'
p2550
aS'/usr/share/fonts/texlive-cm-unicode/cmunbmr.otf'
p2551
aS'/usr/share/fonts/texlive-paratype/PTS76F.ttf'
p2552
aS'/usr/share/fonts/texlive-ocr-b-outline/ocrb10.otf'
p2553
aS'/usr/share/fonts/texlive-opensans/OpenSans-Semibold.ttf'
p2554
aS'/usr/share/fonts/texlive-gnu-freefont/FreeMono.ttf'
p2555
aS'/usr/share/fonts/texlive-lm/lmroman17-regular.otf'
p2556
aS'/usr/share/fonts/texlive-gentium/GenAI102.ttf'
p2557
aS'/usr/share/fonts/texlive-gnu-freefont/FreeSerif.ttf'
p2558
aS'/usr/share/fonts/texlive-opensans/OpenSans-CondLightItalic.ttf'
p2559
aS'/usr/share/fonts/texlive-tex-gyre/texgyretermes-bold.otf'
p2560
aS'/usr/share/fonts/texlive-junicode/Junicode-BoldItalic.ttf'
p2561
aS'/usr/share/fonts/texlive-droid/DroidSans.ttf'
p2562
aS'/usr/share/fonts/texlive-stix/STIXNonUniBol.otf'
p2563
aS'/usr/share/fonts/dejavu/DejaVuSerif.ttf'
p2564
aS'/usr/share/fonts/texlive-belleek/blsy.ttf'
p2565
aS'/usr/share/fonts/texlive-mnsymbol/MnSymbol6.otf'
p2566
aS'/usr/share/fonts/texlive-cm-unicode/cmunrb.otf'
p2567
aS'/usr/share/fonts/texlive-poltawski/antpoltsemiexpd-bolditalic.otf'
p2568
aS'/usr/share/fonts/texlive-ocr-b-outline/ocrb8.otf'
p2569
aS'/usr/share/fonts/texlive-cm-unicode/cmuntb.otf'
p2570
aS'/usr/share/fonts/texlive-iwona/IwonaMedium-Regular.otf'
p2571
aS'/usr/share/fonts/texlive-tex-gyre/texgyreadventor-bolditalic.otf'
p2572
aS'/usr/share/fonts/texlive-dejavu/DejaVuSerifCondensed-Italic.ttf'
p2573
aS'/usr/share/fonts/texlive-stix/STIXIntUpDBol.otf'
p2574
aS'/usr/share/fonts/msttcore/timesbd.ttf'
p2575
aS'/usr/share/fonts/texlive-oldstandard/OldStandard-Bold.otf'
p2576
aS'/usr/share/fonts/texlive-gentium/GenR102.ttf'
p2577
aS'/usr/share/fonts/texlive-stix/STIXIntDReg.otf'
p2578
aS'/usr/share/fonts/texlive-stix/STIXSizThreeSymReg.otf'
p2579
aS'/usr/share/fonts/texlive-lato/Lato-BoldItalic.ttf'
p2580
aS'/usr/share/fonts/texlive-gnu-freefont/FreeSansBold.ttf'
p2581
aS'/usr/share/fonts/msttcore/verdanaz.ttf'
p2582
aS'/usr/share/fonts/texlive-semaphor/smfb10.otf'
p2583
aS'/usr/share/fonts/texlive-stix/STIXGeneralBolIta.otf'
p2584
aS'/usr/share/fonts/texlive-semaphor/smfesl10.otf'
p2585
aS'/usr/share/fonts/texlive-lm/lmroman5-bold.otf'
p2586
aS'/usr/share/fonts/texlive-lm/lmromandemi10-oblique.otf'
p2587
aS'/usr/share/fonts/texlive-mnsymbol/MnSymbol-Bold10.otf'
p2588
aS'/usr/share/fonts/texlive-tex-gyre/texgyrepagella-bolditalic.otf'
p2589
aS'/usr/share/fonts/texlive-kurier/KurierCondMedium-Italic.otf'
p2590
aS'/usr/share/fonts/texlive-lm/lmmono10-italic.otf'
p2591
aS'/usr/share/fonts/texlive-iwona/Iwona-BoldItalic.otf'
p2592
aS'/usr/share/fonts/texlive-dejavu/DejaVuSerifCondensed-BoldItalic.ttf'
p2593
aS'/usr/share/fonts/texlive-stix/STIXGeneralItalic.otf'
p2594
aS'/usr/share/fonts/texlive-lato/Lato-Regular.ttf'
p2595
aS'/usr/share/fonts/texlive-philokalia/Philokalia-Regular.otf'
p2596
aS'/usr/share/fonts/texlive-oldstandard/OldStandard-Italic.otf'
p2597
aS'/usr/share/fonts/texlive-kurier/Kurier-Regular.otf'
p2598
aS'/usr/share/fonts/texlive-poltawski/antpoltltsemicond-bolditalic.otf'
p2599
aS'/usr/share/fonts/texlive-dejavu/DejaVuSansCondensed.ttf'
p2600
aS'/usr/share/fonts/texlive-mnsymbol/MnSymbol5.otf'
p2601
aS'/usr/share/fonts/texlive-lato/Lato-Black.ttf'
p2602
aS'/usr/share/fonts/texlive-semaphor/smftt10.otf'
p2603
aS'/usr/share/fonts/texlive-ipaex/ipaexg.ttf'
p2604
aS'/usr/share/fonts/texlive-gfsartemisia/GFSArtemisiaBold.otf'
p2605
aS'/usr/share/fonts/texlive-iwona/IwonaLight-Regular.otf'
p2606
aS'/usr/share/fonts/texlive-antt/AntykwaTorunskaCondMed-Italic.otf'
p2607
aS'/usr/share/fonts/texlive-lm/lmroman6-bold.otf'
p2608
aS'/usr/share/fonts/texlive-cm-unicode/cmunbl.otf'
p2609
aS'/usr/share/fonts/texlive-cm-unicode/cmunst.otf'
p2610
aS'/usr/share/fonts/texlive-tex-gyre/texgyreadventor-bold.otf'
p2611
aS'/usr/share/fonts/texlive-gnu-freefont/FreeSerifItalic.ttf'
p2612
aS'/usr/share/fonts/texlive-tex-gyre/texgyrecursor-italic.otf'
p2613
aS'/usr/share/fonts/texlive-gentium/GenBasR.ttf'
p2614
aS'/usr/share/fonts/texlive-opensans/OpenSans-SemiboldItalic.ttf'
p2615
aS'/usr/share/fonts/texlive-libertine/fxlzi.otf'
p2616
aS'/usr/share/fonts/texlive-iwona/IwonaCondMedium-Italic.otf'
p2617
aS'/usr/share/fonts/texlive-lm/lmromancaps10-oblique.otf'
p2618
aS'/usr/share/fonts/texlive-ocr-b-outline/ocrb7.otf'
p2619
aS'/usr/share/fonts/texlive-dejavu/DejaVuSerif.ttf'
p2620
aS'/usr/share/fonts/texlive-mnsymbol/MnSymbol-Bold6.otf'
p2621
aS'/usr/share/fonts/texlive-gfscomplutum/GFSPolyglot.otf'
p2622
aS'/usr/share/fonts/texlive-cm-unicode/cmunbi.otf'
p2623
aS'/usr/share/fonts/texlive-stix/STIXVarBol.otf'
p2624
aS'/usr/share/fonts/texlive-lm/lmromanslant10-regular.otf'
p2625
aS'/usr/share/fonts/texlive-lm/lmsansdemicond10-regular.otf'
p2626
aS'/usr/share/fonts/texlive-antt/AntykwaTorunska-Bold.otf'
p2627
aS'/usr/share/fonts/texlive-libertine/fxlz.otf'
p2628
aS'/usr/share/fonts/texlive-tex-gyre/texgyretermes-italic.otf'
p2629
aS'/usr/share/fonts/texlive-gnu-freefont/FreeSansOblique.otf'
p2630
aS'/usr/share/fonts/texlive-cm-unicode/cmunvt.otf'
p2631
aS'/usr/share/fonts/texlive-semaphor/smfett10.otf'
p2632
aS'/usr/share/fonts/texlive-kurier/KurierCond-BoldItalic.otf'
p2633
aS'/usr/share/fonts/texlive-cm-unicode/cmunti.otf'
p2634
aS'/usr/share/fonts/texlive-tex-gyre/texgyrecursor-regular.otf'
p2635
aS'/usr/share/fonts/texlive-ocr-b-outline/ocrb5.otf'
p2636
aS'/usr/share/fonts/texlive-libertine/fxldr.otf'
p2637
aS'/usr/share/fonts/texlive-lato/Lato-Bold.ttf'
p2638
aS'/usr/share/fonts/texlive-lato/Lato-Italic.ttf'
p2639
aS'/usr/share/fonts/texlive-umtypewriter/UMTypewriter-Bold.otf'
p2640
aS'/usr/share/fonts/texlive-cm-unicode/cmunrm.otf'
p2641
aS'/usr/share/fonts/texlive-dejavu/DejaVuSerifCondensed.ttf'
p2642
aS'/usr/share/fonts/texlive-poltawski/antpoltlt-bold.otf'
p2643
aS'/usr/share/fonts/dejavu/DejaVuSansMono-Bold.ttf'
p2644
aS'/usr/share/fonts/texlive-tex-gyre/texgyretermes-bolditalic.otf'
p2645
aS'/usr/share/fonts/texlive-skaknew/AlphaDia.otf'
p2646
aS'/usr/share/fonts/texlive-mnsymbol/MnSymbol-Bold9.otf'
p2647
aS'/usr/share/fonts/texlive-poltawski/antpoltltexpd-bold.otf'
p2648
aS'/usr/share/fonts/texlive-gfsartemisia/GFSArtemisia.otf'
p2649
aS'/usr/share/fonts/texlive-stix/STIXIntUpDReg.otf'
p2650
aS'/usr/share/fonts/msttcore/ariblk.ttf'
p2651
aS'/usr/share/fonts/texlive-opensans/OpenSans-Bold.ttf'
p2652
aS'/usr/share/fonts/dejavu/DejaVuSerif-BoldItalic.ttf'
p2653
aS'/usr/share/fonts/texlive-cm-unicode/cmunit.otf'
p2654
aS'/usr/share/fonts/texlive-xits/xits-regular.otf'
p2655
aS'/usr/share/fonts/texlive-poltawski/antpoltltsemicond-italic.otf'
p2656
aS'/usr/share/fonts/texlive-mnsymbol/MnSymbol-Bold8.otf'
p2657
aS'/usr/share/fonts/dejavu/DejaVuSerifCondensed-Bold.ttf'
p2658
aS'/usr/share/fonts/msttcore/trebucbd.ttf'
p2659
aS'/usr/share/fonts/texlive-cm-unicode/cmunoti.otf'
p2660
aS'/usr/share/fonts/texlive-poltawski/antpoltsemicond-bolditalic.otf'
p2661
aS'/usr/share/fonts/msttcore/andalemo.ttf'
p2662
aS'/usr/share/fonts/texlive-tex-gyre/texgyrepagella-regular.otf'
p2663
aS'/usr/share/fonts/texlive-umtypewriter/UMTypewriter-BoldItalic.otf'
p2664
aS'/usr/share/fonts/texlive-stix/STIXSizTwoSymBol.otf'
p2665
asS'_FontManager__default_weight'
p2666
g13
sS'_version'
p2667
I7
sS'ttf_lookup_cache'
p2668
(dp2669
sS'default_size'
p2670
NsS'defaultFont'
p2671
(dp2672
g2116
Nsg2118
g2122
ssS'afmfiles'
p2673
(lp2674
S'/usr/share/fonts/default/ghostscript/fcyri.afm'
p2675
aS'/usr/share/fonts/default/Type1/n021023l.afm'
p2676
aS'/usr/share/fonts/default/ghostscript/u003043t.afm'
p2677
aS'/usr/share/fonts/default/Type1/b018032l.afm'
p2678
aS'/usr/share/fonts/default/Type1/p052024l.afm'
p2679
aS'/usr/share/fonts/default/Type1/n019003l.afm'
p2680
aS'/usr/share/fonts/default/Type1/n021003l.afm'
p2681
aS'/usr/share/fonts/default/Type1/b018035l.afm'
p2682
aS'/usr/share/fonts/default/Type1/p052003l.afm'
p2683
aS'/usr/share/fonts/default/Type1/n022023l.afm'
p2684
aS'/usr/share/fonts/default/Type1/n021024l.afm'
p2685
aS'/usr/share/fonts/default/Type1/a010033l.afm'
p2686
aS'/usr/share/fonts/default/Type1/p052004l.afm'
p2687
aS'/usr/share/fonts/default/Type1/n019023l.afm'
p2688
aS'/usr/share/fonts/default/Type1/n022004l.afm'
p2689
aS'/usr/share/fonts/default/Type1/n019063l.afm'
p2690
aS'/usr/share/fonts/default/Type1/n019043l.afm'
p2691
aS'/usr/share/fonts/default/ghostscript/bchri.afm'
p2692
aS'/usr/share/fonts/default/Type1/n019064l.afm'
p2693
aS'/usr/share/fonts/default/Type1/n019044l.afm'
p2694
aS'/usr/share/fonts/default/Type1/n021004l.afm'
p2695
aS'/usr/share/fonts/default/ghostscript/bchbi.afm'
p2696
aS'/usr/share/fonts/default/Type1/n019024l.afm'
p2697
aS'/usr/share/fonts/default/Type1/a010035l.afm'
p2698
aS'/usr/share/fonts/default/ghostscript/fcyr.afm'
p2699
aS'/usr/share/fonts/default/Type1/s050000l.afm'
p2700
aS'/usr/share/fonts/default/ghostscript/bchb.afm'
p2701
aS'/usr/share/fonts/default/Type1/a010013l.afm'
p2702
aS'/usr/share/fonts/default/Type1/z003034l.afm'
p2703
aS'/usr/share/fonts/default/Type1/c059036l.afm'
p2704
aS'/usr/share/fonts/default/Type1/n019004l.afm'
p2705
aS'/usr/share/fonts/default/ghostscript/bchr.afm'
p2706
aS'/usr/share/fonts/default/Type1/b018012l.afm'
p2707
aS'/usr/share/fonts/default/Type1/d050000l.afm'
p2708
aS'/usr/share/fonts/default/Type1/c059013l.afm'
p2709
aS'/usr/share/fonts/default/Type1/n022024l.afm'
p2710
aS'/usr/share/fonts/default/Type1/a010015l.afm'
p2711
aS'/usr/share/fonts/default/Type1/c059033l.afm'
p2712
aS'/usr/share/fonts/default/Type1/n022003l.afm'
p2713
aS'/usr/share/fonts/default/ghostscript/u004006t.afm'
p2714
aS'/usr/share/fonts/default/Type1/p052023l.afm'
p2715
aS'/usr/share/fonts/default/Type1/b018015l.afm'
p2716
aS'/usr/share/fonts/default/Type1/c059016l.afm'
p2717
asS'afmlist'
p2718
(lp2719
g7
(g8
g9
NtRp2720
(dp2721
g12
g38
sg14
S'Cyrillic'
p2722
sg16
I500
sg17
g13
sg18
g13
sg19
g2675
sg21
g22
sbag7
(g8
g9
NtRp2723
(dp2724
g12
g38
sg14
S'Nimbus Roman No9 L'
p2725
sg16
I400
sg17
g13
sg18
g13
sg19
g2676
sg21
g22
sbag7
(g8
g9
NtRp2726
(dp2727
g12
g13
sg14
S'URW Antiqua T'
p2728
sg16
I400
sg17
g52
sg18
g13
sg19
g2677
sg21
g22
sbag7
(g8
g9
NtRp2729
(dp2730
g12
g38
sg14
S'URW Bookman L'
p2731
sg16
I400
sg17
g13
sg18
g13
sg19
g2678
sg21
g22
sbag7
(g8
g9
NtRp2732
(dp2733
g12
g38
sg14
S'URW Palladio L'
p2734
sg16
I700
sg17
g13
sg18
g13
sg19
g2679
sg21
g22
sbag7
(g8
g9
NtRp2735
(dp2736
g12
g13
sg14
S'Nimbus Sans L'
p2737
sg16
I400
sg17
g13
sg18
g13
sg19
g2680
sg21
g22
sbag7
(g8
g9
NtRp2738
(dp2739
g12
g13
sg14
S'Nimbus Roman No9 L'
p2740
sg16
I400
sg17
g13
sg18
g13
sg19
g2681
sg21
g22
sbag7
(g8
g9
NtRp2741
(dp2742
g12
g38
sg14
S'URW Bookman L'
p2743
sg16
I700
sg17
g13
sg18
g13
sg19
g2682
sg21
g22
sbag7
(g8
g9
NtRp2744
(dp2745
g12
g13
sg14
S'URW Palladio L'
p2746
sg16
I500
sg17
g13
sg18
g13
sg19
g2683
sg21
g22
sbag7
(g8
g9
NtRp2747
(dp2748
g12
g38
sg14
S'Nimbus Mono L'
p2749
sg16
I400
sg17
g13
sg18
g13
sg19
g2684
sg21
g22
sbag7
(g8
g9
NtRp2750
(dp2751
g12
g38
sg14
S'Nimbus Roman No9 L'
p2752
sg16
I700
sg17
g13
sg18
g13
sg19
g2685
sg21
g22
sbag7
(g8
g9
NtRp2753
(dp2754
g12
g38
sg14
S'URW Gothic L'
p2755
sg16
I400
sg17
g13
sg18
g13
sg19
g2686
sg21
g22
sbag7
(g8
g9
NtRp2756
(dp2757
g12
g13
sg14
S'URW Palladio L'
p2758
sg16
I700
sg17
g13
sg18
g13
sg19
g2687
sg21
g22
sbag7
(g8
g9
NtRp2759
(dp2760
g12
g38
sg14
S'Nimbus Sans L'
p2761
sg16
I400
sg17
g13
sg18
g13
sg19
g2688
sg21
g22
sbag7
(g8
g9
NtRp2762
(dp2763
g12
g13
sg14
S'Nimbus Mono L'
p2764
sg16
I700
sg17
g13
sg18
g13
sg19
g2689
sg21
g22
sbag7
(g8
g9
NtRp2765
(dp2766
g12
g38
sg14
S'Nimbus Sans L'
p2767
sg16
I400
sg17
g52
sg18
g13
sg19
g2690
sg21
g22
sbag7
(g8
g9
NtRp2768
(dp2769
g12
g13
sg14
S'Nimbus Sans L'
p2770
sg16
I400
sg17
g52
sg18
g13
sg19
g2691
sg21
g22
sbag7
(g8
g9
NtRp2771
(dp2772
g12
g38
sg14
S'Bitstream Charter'
p2773
sg16
I400
sg17
g13
sg18
g13
sg19
g2692
sg21
g22
sbag7
(g8
g9
NtRp2774
(dp2775
g12
g38
sg14
S'Nimbus Sans L'
p2776
sg16
I700
sg17
g52
sg18
g13
sg19
g2693
sg21
g22
sbag7
(g8
g9
NtRp2777
(dp2778
g12
g13
sg14
S'Nimbus Sans L'
p2779
sg16
I700
sg17
g52
sg18
g13
sg19
g2694
sg21
g22
sbag7
(g8
g9
NtRp2780
(dp2781
g12
g13
sg14
S'Nimbus Roman No9 L'
p2782
sg16
I700
sg17
g13
sg18
g13
sg19
g2695
sg21
g22
sbag7
(g8
g9
NtRp2783
(dp2784
g12
g38
sg14
S'Bitstream Charter'
p2785
sg16
I700
sg17
g13
sg18
g13
sg19
g2696
sg21
g22
sbag7
(g8
g9
NtRp2786
(dp2787
g12
g38
sg14
S'Nimbus Sans L'
p2788
sg16
I700
sg17
g13
sg18
g13
sg19
g2697
sg21
g22
sbag7
(g8
g9
NtRp2789
(dp2790
g12
g38
sg14
S'URW Gothic L'
p2791
sg16
I600
sg17
g13
sg18
g13
sg19
g2698
sg21
g22
sbag7
(g8
g9
NtRp2792
(dp2793
g12
g13
sg14
S'Cyrillic'
p2794
sg16
I500
sg17
g13
sg18
g13
sg19
g2699
sg21
g22
sbag7
(g8
g9
NtRp2795
(dp2796
g12
g13
sg14
S'Standard Symbols L'
p2797
sg16
I400
sg17
g13
sg18
g13
sg19
g2700
sg21
g22
sbag7
(g8
g9
NtRp2798
(dp2799
g12
g13
sg14
S'Bitstream Charter'
p2800
sg16
I700
sg17
g13
sg18
g13
sg19
g2701
sg21
g22
sbag7
(g8
g9
NtRp2801
(dp2802
g12
g13
sg14
S'URW Gothic L'
p2803
sg16
I400
sg17
g13
sg18
g13
sg19
g2702
sg21
g22
sbag7
(g8
g9
NtRp2804
(dp2805
g12
g38
sg14
S'URW Chancery L'
p2806
sg16
I500
sg17
g13
sg18
g13
sg19
g2703
sg21
g22
sbag7
(g8
g9
NtRp2807
(dp2808
g12
g38
sg14
S'Century Schoolbook L'
p2809
sg16
I700
sg17
g13
sg18
g13
sg19
g2704
sg21
g22
sbag7
(g8
g9
NtRp2810
(dp2811
g12
g13
sg14
S'Nimbus Sans L'
p2812
sg16
I700
sg17
g13
sg18
g13
sg19
g2705
sg21
g22
sbag7
(g8
g9
NtRp2813
(dp2814
g12
g13
sg14
S'Bitstream Charter'
p2815
sg16
I400
sg17
g13
sg18
g13
sg19
g2706
sg21
g22
sbag7
(g8
g9
NtRp2816
(dp2817
g12
g13
sg14
S'URW Bookman L'
p2818
sg16
I400
sg17
g13
sg18
g13
sg19
g2707
sg21
g22
sbag7
(g8
g9
NtRp2819
(dp2820
g12
g13
sg14
S'Dingbats'
p2821
sg16
I400
sg17
g13
sg18
g13
sg19
g2708
sg21
g22
sbag7
(g8
g9
NtRp2822
(dp2823
g12
g13
sg14
S'Century Schoolbook L'
p2824
sg16
I500
sg17
g13
sg18
g13
sg19
g2709
sg21
g22
sbag7
(g8
g9
NtRp2825
(dp2826
g12
g38
sg14
S'Nimbus Mono L'
p2827
sg16
I700
sg17
g13
sg18
g13
sg19
g2710
sg21
g22
sbag7
(g8
g9
NtRp2828
(dp2829
g12
g13
sg14
S'URW Gothic L'
p2830
sg16
I600
sg17
g13
sg18
g13
sg19
g2711
sg21
g22
sbag7
(g8
g9
NtRp2831
(dp2832
g12
g38
sg14
S'Century Schoolbook L'
p2833
sg16
I400
sg17
g13
sg18
g13
sg19
g2712
sg21
g22
sbag7
(g8
g9
NtRp2834
(dp2835
g12
g13
sg14
S'Nimbus Mono L'
p2836
sg16
I400
sg17
g13
sg18
g13
sg19
g2713
sg21
g22
sbag7
(g8
g9
NtRp2837
(dp2838
g12
g13
sg14
S'URW Grotesk T'
p2839
sg16
I400
sg17
g13
sg18
g13
sg19
g2714
sg21
g22
sbag7
(g8
g9
NtRp2840
(dp2841
g12
g38
sg14
S'URW Palladio L'
p2842
sg16
I400
sg17
g13
sg18
g13
sg19
g2715
sg21
g22
sbag7
(g8
g9
NtRp2843
(dp2844
g12
g13
sg14
S'URW Bookman L'
p2845
sg16
I700
sg17
g13
sg18
g13
sg19
g2716
sg21
g22
sbag7
(g8
g9
NtRp2846
(dp2847
g12
g13
sg14
S'Century Schoolbook L'
p2848
sg16
I700
sg17
g13
sg18
g13
sg19
g2717
sg21
g22
sbasb.