(imatplotlib.font_manager
FontManager
p1
(dp2
S'afm_lookup_cache'
p3
(dp4
sS'ttflist'
p5
(lp6
ccopy_reg
_reconstructor
p7
(cmatplotlib.font_manager
FontEntry
p8
c__builtin__
object
p9
NtRp10
(dp11
S'style'
p12
S'normal'
p13
sS'name'
p14
S'UnDotum'
p15
sS'weight'
p16
I400
sS'stretch'
p17
g13
sS'variant'
p18
g13
sS'fname'
p19
S'/usr/share/fonts/un-core/UnDotum.ttf'
p20
sS'size'
p21
S'scalable'
p22
sbag7
(g8
g9
NtRp23
(dp24
g12
g13
sg14
S'KacstScreen'
p25
sg16
I400
sg17
g13
sg18
g13
sg19
S'/usr/share/fonts/kacst/KacstScreen.ttf'
p26
sg21
g22
sbag7
(g8
g9
NtRp27
(dp28
g12
g13
sg14
S'KacstBook'
p29
sg16
I400
sg17
g13
sg18
g13
sg19
S'/usr/share/fonts/kacst/KacstBook.ttf'
p30
sg21
g22
sbag7
(g8
g9
NtRp31
(dp32
g12
S'oblique'
p33
sg14
S'FreeSans'
p34
sg16
I400
sg17
g13
sg18
g13
sg19
S'/usr/share/fonts/gnu-free/FreeSansOblique.ttf'
p35
sg21
g22
sbag7
(g8
g9
NtRp36
(dp37
g12
S'italic'
p38
sg14
S'DejaVu Serif'
p39
sg16
I700
sg17
S'condensed'
p40
sg18
g13
sg19
S'/usr/share/fonts/dejavu/DejaVuSerifCondensed-BoldItalic.ttf'
p41
sg21
g22
sbag7
(g8
g9
NtRp42
(dp43
g12
g33
sg14
S'FreeSans'
p44
sg16
I700
sg17
g13
sg18
g13
sg19
S'/usr/share/fonts/gnu-free/FreeSansBoldOblique.ttf'
p45
sg21
g22
sbag7
(g8
g9
NtRp46
(dp47
g12
g13
sg14
S'Lohit Gujarati'
p48
sg16
I400
sg17
g13
sg18
g13
sg19
S'/usr/share/fonts/lohit-gujarati/Lohit-Gujarati.ttf'
p49
sg21
g22
sbag7
(g8
g9
NtRp50
(dp51
g12
g38
sg14
S'STIXGeneral'
p52
sg16
I400
sg17
g13
sg18
g13
sg19
S'/usr/share/fonts/stix/STIXGeneralItalic.otf'
p53
sg21
g22
sbag7
(g8
g9
NtRp54
(dp55
g12
g38
sg14
S'Liberation Sans Narrow'
p56
sg16
I700
sg17
g40
sg18
g13
sg19
S'/usr/share/fonts/liberation/LiberationSansNarrow-BoldItalic.ttf'
p57
sg21
g22
sbag7
(g8
g9
NtRp58
(dp59
g12
g13
sg14
S'DejaVu Sans'
p60
sg16
I700
sg17
g13
sg18
g13
sg19
S'/usr/share/fonts/dejavu/DejaVuSans-Bold.ttf'
p61
sg21
g22
sbag7
(g8
g9
NtRp62
(dp63
g12
g13
sg14
S'Jomolhari'
p64
sg16
I400
sg17
g13
sg18
g13
sg19
S'/usr/share/fonts/jomolhari/Jomolhari-alpha3c-0605331.ttf'
p65
sg21
g22
sbag7
(g8
g9
NtRp66
(dp67
g12
g33
sg14
S'Bitstream Vera Sans'
p68
sg16
I400
sg17
g13
sg18
g13
sg19
S'/usr/share/fonts/bitstream-vera/VeraIt.ttf'
p69
sg21
g22
sbag7
(g8
g9
NtRp70
(dp71
g12
g13
sg14
S'PakType Tehreer'
p72
sg16
I400
sg17
g13
sg18
g13
sg19
S'/usr/share/fonts/paktype-tehreer/PakType_Tehreer.ttf'
p73
sg21
g22
sbag7
(g8
g9
NtRp74
(dp75
g12
g13
sg14
S'FreeSerif'
p76
sg16
I400
sg17
g13
sg18
g13
sg19
S'/usr/share/fonts/gnu-free/FreeSerif.ttf'
p77
sg21
g22
sbag7
(g8
g9
NtRp78
(dp79
g12
g13
sg14
S'KacstDecorative'
p80
sg16
I400
sg17
g13
sg18
g13
sg19
S'/usr/share/fonts/kacst/KacstDecorative.ttf'
p81
sg21
g22
sbag7
(g8
g9
NtRp82
(dp83
g12
g13
sg14
S'DejaVu Sans'
p84
sg16
I400
sg17
g40
sg18
g13
sg19
S'/usr/share/fonts/dejavu/DejaVuSansCondensed.ttf'
p85
sg21
g22
sbag7
(g8
g9
NtRp86
(dp87
g12
g33
sg14
S'Bitstream Vera Sans Mono'
p88
sg16
I700
sg17
g13
sg18
g13
sg19
S'/usr/share/fonts/bitstream-vera/VeraMoBI.ttf'
p89
sg21
g22
sbag7
(g8
g9
NtRp90
(dp91
g12
g13
sg14
S'FreeSans'
p92
sg16
I400
sg17
g13
sg18
g13
sg19
S'/usr/share/fonts/gnu-free/FreeSans.ttf'
p93
sg21
g22
sbag7
(g8
g9
NtRp94
(dp95
g12
g33
sg14
S'DejaVu Sans'
p96
sg16
I400
sg17
g40
sg18
g13
sg19
S'/usr/share/fonts/dejavu/DejaVuSansCondensed-Oblique.ttf'
p97
sg21
g22
sbag7
(g8
g9
NtRp98
(dp99
g12
g13
sg14
S'Waree'
p100
sg16
I700
sg17
g13
sg18
g13
sg19
S'/usr/share/fonts/thai-scalable/Waree-Bold.ttf'
p101
sg21
g22
sbag7
(g8
g9
NtRp102
(dp103
g12
g13
sg14
S'Khmer OS Content'
p104
sg16
I400
sg17
g13
sg18
g13
sg19
S'/usr/share/fonts/khmeros/KhmerOS_content.ttf'
p105
sg21
g22
sbag7
(g8
g9
NtRp106
(dp107
g12
g33
sg14
S'DejaVu Sans'
p108
sg16
I400
sg17
g13
sg18
g13
sg19
S'/usr/share/fonts/dejavu/DejaVuSans-Oblique.ttf'
p109
sg21
g22
sbag7
(g8
g9
NtRp110
(dp111
g12
g13
sg14
S'Liberation Mono'
p112
sg16
I700
sg17
g13
sg18
g13
sg19
S'/usr/share/fonts/liberation/LiberationMono-Bold.ttf'
p113
sg21
g22
sbag7
(g8
g9
NtRp114
(dp115
g12
g13
sg14
S'Khmer OS'
p116
sg16
I400
sg17
g13
sg18
g13
sg19
S'/usr/share/fonts/khmeros/KhmerOS.ttf'
p117
sg21
g22
sbag7
(g8
g9
NtRp118
(dp119
g12
g13
sg14
S'STIXGeneral'
p120
sg16
I400
sg17
g13
sg18
g13
sg19
S'/usr/share/fonts/stix/STIXGeneral.otf'
p121
sg21
g22
sbag7
(g8
g9
NtRp122
(dp123
g12
g13
sg14
S'Meera'
p124
sg16
I400
sg17
g13
sg18
g13
sg19
S'/usr/share/fonts/smc/Meera.ttf'
p125
sg21
g22
sbag7
(g8
g9
NtRp126
(dp127
g12
g33
sg14
S'FreeMono'
p128
sg16
I700
sg17
g13
sg18
g13
sg19
S'/usr/share/fonts/gnu-free/FreeMonoBoldOblique.ttf'
p129
sg21
g22
sbag7
(g8
g9
NtRp130
(dp131
g12
g13
sg14
S'DejaVu Serif'
p132
sg16
I400
sg17
g40
sg18
g13
sg19
S'/usr/share/fonts/dejavu/DejaVuSerifCondensed.ttf'
p133
sg21
g22
sbag7
(g8
g9
NtRp134
(dp135
g12
g13
sg14
S'Liberation Sans'
p136
sg16
I400
sg17
g13
sg18
g13
sg19
S'/usr/share/fonts/liberation/LiberationSans-Regular.ttf'
p137
sg21
g22
sbag7
(g8
g9
NtRp138
(dp139
g12
g13
sg14
S'Liberation Sans'
p140
sg16
I700
sg17
g13
sg18
g13
sg19
S'/usr/share/fonts/liberation/LiberationSans-Bold.ttf'
p141
sg21
g22
sbag7
(g8
g9
NtRp142
(dp143
g12
g13
sg14
S'KacstQurn'
p144
sg16
I400
sg17
g13
sg18
g13
sg19
S'/usr/share/fonts/kacst/KacstQurn.ttf'
p145
sg21
g22
sbag7
(g8
g9
NtRp146
(dp147
g12
g13
sg14
S'DejaVu Serif'
p148
sg16
I700
sg17
g13
sg18
g13
sg19
S'/usr/share/fonts/dejavu/DejaVuSerif-Bold.ttf'
p149
sg21
g22
sbag7
(g8
g9
NtRp150
(dp151
g12
g13
sg14
S'Lohit Kannada'
p152
sg16
I400
sg17
g13
sg18
g13
sg19
S'/usr/share/fonts/lohit-kannada/Lohit-Kannada.ttf'
p153
sg21
g22
sbag7
(g8
g9
NtRp154
(dp155
g12
g38
sg14
S'DejaVu Serif'
p156
sg16
I400
sg17
g40
sg18
g13
sg19
S'/usr/share/fonts/dejavu/DejaVuSerifCondensed-Italic.ttf'
p157
sg21
g22
sbag7
(g8
g9
NtRp158
(dp159
g12
g13
sg14
S'PT Sans Narrow'
p160
sg16
I400
sg17
g40
sg18
g13
sg19
S'/usr/share/fonts/paratype-pt-sans/PTN57F.ttf'
p161
sg21
g22
sbag7
(g8
g9
NtRp162
(dp163
g12
g33
sg14
S'Waree'
p164
sg16
I700
sg17
g13
sg18
g13
sg19
S'/usr/share/fonts/thai-scalable/Waree-BoldOblique.ttf'
p165
sg21
g22
sbag7
(g8
g9
NtRp166
(dp167
g12
g13
sg14
S'Bitstream Vera Sans'
p168
sg16
I400
sg17
g13
sg18
g13
sg19
S'/usr/share/fonts/bitstream-vera/Vera.ttf'
p169
sg21
g22
sbag7
(g8
g9
NtRp170
(dp171
g12
g13
sg14
S'FreeSerif'
p172
sg16
I700
sg17
g13
sg18
g13
sg19
S'/usr/share/fonts/gnu-free/FreeSerifBold.ttf'
p173
sg21
g22
sbag7
(g8
g9
NtRp174
(dp175
g12
g13
sg14
S'Liberation Mono'
p176
sg16
I400
sg17
g13
sg18
g13
sg19
S'/usr/share/fonts/liberation/LiberationMono-Regular.ttf'
p177
sg21
g22
sbag7
(g8
g9
NtRp178
(dp179
g12
g33
sg14
S'Bitstream Vera Sans'
p180
sg16
I700
sg17
g13
sg18
g13
sg19
S'/usr/share/fonts/bitstream-vera/VeraBI.ttf'
p181
sg21
g22
sbag7
(g8
g9
NtRp182
(dp183
g12
g33
sg14
S'DejaVu LGC Sans Mono'
p184
sg16
I400
sg17
g13
sg18
g13
sg19
S'/usr/share/fonts/dejavu/DejaVuLGCSansMono-Oblique.ttf'
p185
sg21
g22
sbag7
(g8
g9
NtRp186
(dp187
g12
g13
sg14
S'FreeMono'
p188
sg16
I700
sg17
g13
sg18
g13
sg19
S'/usr/share/fonts/gnu-free/FreeMonoBold.ttf'
p189
sg21
g22
sbag7
(g8
g9
NtRp190
(dp191
g12
g13
sg14
S'Lohit Punjabi'
p192
sg16
I400
sg17
g13
sg18
g13
sg19
S'/usr/share/fonts/lohit-punjabi/Lohit-Punjabi.ttf'
p193
sg21
g22
sbag7
(g8
g9
NtRp194
(dp195
g12
g13
sg14
S'FreeMono'
p196
sg16
I400
sg17
g13
sg18
g13
sg19
S'/usr/share/fonts/gnu-free/FreeMono.ttf'
p197
sg21
g22
sbag7
(g8
g9
NtRp198
(dp199
g12
g13
sg14
S'Cantarell'
p200
sg16
I400
sg17
g13
sg18
g13
sg19
S'/usr/share/fonts/abattis-cantarell/Cantarell-Regular.otf'
p201
sg21
g22
sbag7
(g8
g9
NtRp202
(dp203
g12
g13
sg14
S'FreeSans'
p204
sg16
I700
sg17
g13
sg18
g13
sg19
S'/usr/share/fonts/gnu-free/FreeSansBold.ttf'
p205
sg21
g22
sbag7
(g8
g9
NtRp206
(dp207
g12
g38
sg14
S'DejaVu Serif'
p208
sg16
I400
sg17
g13
sg18
g13
sg19
S'/usr/share/fonts/dejavu/DejaVuSerif-Italic.ttf'
p209
sg21
g22
sbag7
(g8
g9
NtRp210
(dp211
g12
g33
sg14
S'DejaVu Sans Mono'
p212
sg16
I700
sg17
g13
sg18
g13
sg19
S'/usr/share/fonts/dejavu/DejaVuSansMono-BoldOblique.ttf'
p213
sg21
g22
sbag7
(g8
g9
NtRp214
(dp215
g12
g38
sg14
S'FreeSerif'
p216
sg16
I700
sg17
g13
sg18
g13
sg19
S'/usr/share/fonts/gnu-free/FreeSerifBoldItalic.ttf'
p217
sg21
g22
sbag7
(g8
g9
NtRp218
(dp219
g12
g13
sg14
S'DejaVu Sans'
p220
sg16
I200
sg17
g13
sg18
g13
sg19
S'/usr/share/fonts/dejavu/DejaVuSans-ExtraLight.ttf'
p221
sg21
g22
sbag7
(g8
g9
NtRp222
(dp223
g12
g13
sg14
S'Abyssinica SIL'
p224
sg16
I400
sg17
g13
sg18
g13
sg19
S'/usr/share/fonts/sil-abyssinica/Abyssinica_SIL.ttf'
p225
sg21
g22
sbag7
(g8
g9
NtRp226
(dp227
g12
g13
sg14
S'Padauk'
p228
sg16
I700
sg17
g13
sg18
g13
sg19
S'/usr/share/fonts/sil-padauk/Padauk-Bold.ttf'
p229
sg21
g22
sbag7
(g8
g9
NtRp230
(dp231
g12
g13
sg14
S'PT Sans'
p232
sg16
I700
sg17
g13
sg18
g13
sg19
S'/usr/share/fonts/paratype-pt-sans/PTS75F.ttf'
p233
sg21
g22
sbag7
(g8
g9
NtRp234
(dp235
g12
g13
sg14
S'Khmer OS System'
p236
sg16
I400
sg17
g13
sg18
g13
sg19
S'/usr/share/fonts/khmeros/KhmerOS_sys.ttf'
p237
sg21
g22
sbag7
(g8
g9
NtRp238
(dp239
g12
g13
sg14
S'KacstFarsi'
p240
sg16
I400
sg17
g13
sg18
g13
sg19
S'/usr/share/fonts/kacst/KacstFarsi.ttf'
p241
sg21
g22
sbag7
(g8
g9
NtRp242
(dp243
g12
g13
sg14
S'OpenSymbol'
p244
sg16
I400
sg17
g13
sg18
g13
sg19
S'/usr/share/fonts/opensymbol/opens___.ttf'
p245
sg21
g22
sbag7
(g8
g9
NtRp246
(dp247
g12
g13
sg14
S'DejaVu Sans Mono'
p248
sg16
I400
sg17
g13
sg18
g13
sg19
S'/usr/share/fonts/dejavu/DejaVuSansMono.ttf'
p249
sg21
g22
sbag7
(g8
g9
NtRp250
(dp251
g12
g13
sg14
S'Bitstream Vera Sans Mono'
p252
sg16
I400
sg17
g13
sg18
g13
sg19
S'/usr/share/fonts/bitstream-vera/VeraMono.ttf'
p253
sg21
g22
sbag7
(g8
g9
NtRp254
(dp255
g12
g38
sg14
S'Liberation Sans Narrow'
p256
sg16
I400
sg17
g40
sg18
g13
sg19
S'/usr/share/fonts/liberation/LiberationSansNarrow-Italic.ttf'
p257
sg21
g22
sbag7
(g8
g9
NtRp258
(dp259
g12
g13
sg14
S'KacstPoster'
p260
sg16
I400
sg17
g13
sg18
g13
sg19
S'/usr/share/fonts/kacst/KacstPoster.ttf'
p261
sg21
g22
sbag7
(g8
g9
NtRp262
(dp263
g12
g13
sg14
S'STIXGeneral'
p264
sg16
I700
sg17
g13
sg18
g13
sg19
S'/usr/share/fonts/stix/STIXGeneralBol.otf'
p265
sg21
g22
sbag7
(g8
g9
NtRp266
(dp267
g12
g33
sg14
S'Bitstream Vera Sans Mono'
p268
sg16
I400
sg17
g13
sg18
g13
sg19
S'/usr/share/fonts/bitstream-vera/VeraMoIt.ttf'
p269
sg21
g22
sbag7
(g8
g9
NtRp270
(dp271
g12
g38
sg14
S'STIXGeneral'
p272
sg16
I700
sg17
g13
sg18
g13
sg19
S'/usr/share/fonts/stix/STIXGeneralBolIta.otf'
p273
sg21
g22
sbag7
(g8
g9
NtRp274
(dp275
g12
g13
sg14
S'DejaVu Serif'
p276
sg16
I400
sg17
g13
sg18
g13
sg19
S'/usr/share/fonts/dejavu/DejaVuSerif.ttf'
p277
sg21
g22
sbag7
(g8
g9
NtRp278
(dp279
g12
g13
sg14
S'KacstTitleL'
p280
sg16
I400
sg17
g13
sg18
g13
sg19
S'/usr/share/fonts/kacst/KacstTitleL.ttf'
p281
sg21
g22
sbag7
(g8
g9
NtRp282
(dp283
g12
g13
sg14
S'KacstLetter'
p284
sg16
I400
sg17
g13
sg18
g13
sg19
S'/usr/share/fonts/kacst/KacstLetter.ttf'
p285
sg21
g22
sbag7
(g8
g9
NtRp286
(dp287
g12
g13
sg14
S'KacstTitle'
p288
sg16
I400
sg17
g13
sg18
g13
sg19
S'/usr/share/fonts/kacst/KacstTitle.ttf'
p289
sg21
g22
sbag7
(g8
g9
NtRp290
(dp291
g12
g38
sg14
S'PT Sans'
p292
sg16
I400
sg17
g13
sg18
g13
sg19
S'/usr/share/fonts/paratype-pt-sans/PTS56F.ttf'
p293
sg21
g22
sbag7
(g8
g9
NtRp294
(dp295
g12
g33
sg14
S'DejaVu Sans Mono'
p296
sg16
I400
sg17
g13
sg18
g13
sg19
S'/usr/share/fonts/dejavu/DejaVuSansMono-Oblique.ttf'
p297
sg21
g22
sbag7
(g8
g9
NtRp298
(dp299
g12
g13
sg14
S'KacstNaskh'
p300
sg16
I400
sg17
g13
sg18
g13
sg19
S'/usr/share/fonts/kacst/KacstNaskh.ttf'
p301
sg21
g22
sbag7
(g8
g9
NtRp302
(dp303
g12
g38
sg14
S'FreeSerif'
p304
sg16
I400
sg17
g13
sg18
g13
sg19
S'/usr/share/fonts/gnu-free/FreeSerifItalic.ttf'
p305
sg21
g22
sbag7
(g8
g9
NtRp306
(dp307
g12
g13
sg14
S'LKLUG'
p308
sg16
I400
sg17
g13
sg18
g13
sg19
S'/usr/share/fonts/lklug/lklug.ttf'
p309
sg21
g22
sbag7
(g8
g9
NtRp310
(dp311
g12
g38
sg14
S'Liberation Sans'
p312
sg16
I700
sg17
g13
sg18
g13
sg19
S'/usr/share/fonts/liberation/LiberationSans-BoldItalic.ttf'
p313
sg21
g22
sbag7
(g8
g9
NtRp314
(dp315
g12
g13
sg14
S'Waree'
p316
sg16
I400
sg17
g13
sg18
g13
sg19
S'/usr/share/fonts/thai-scalable/Waree.ttf'
p317
sg21
g22
sbag7
(g8
g9
NtRp318
(dp319
g12
g13
sg14
S'KacstDigital'
p320
sg16
I400
sg17
g13
sg18
g13
sg19
S'/usr/share/fonts/kacst/KacstDigital.ttf'
p321
sg21
g22
sbag7
(g8
g9
NtRp322
(dp323
g12
g13
sg14
S'Liberation Sans Narrow'
p324
sg16
I700
sg17
g40
sg18
g13
sg19
S'/usr/share/fonts/liberation/LiberationSansNarrow-Bold.ttf'
p325
sg21
g22
sbag7
(g8
g9
NtRp326
(dp327
g12
g13
sg14
S'Lohit Assamese'
p328
sg16
I400
sg17
g13
sg18
g13
sg19
S'/usr/share/fonts/lohit-assamese/Lohit-Assamese.ttf'
p329
sg21
g22
sbag7
(g8
g9
NtRp330
(dp331
g12
g13
sg14
S'PT Sans Narrow'
p332
sg16
I700
sg17
g40
sg18
g13
sg19
S'/usr/share/fonts/paratype-pt-sans/PTN77F.ttf'
p333
sg21
g22
sbag7
(g8
g9
NtRp334
(dp335
g12
g33
sg14
S'DejaVu Sans'
p336
sg16
I700
sg17
g13
sg18
g13
sg19
S'/usr/share/fonts/dejavu/DejaVuSans-BoldOblique.ttf'
p337
sg21
g22
sbag7
(g8
g9
NtRp338
(dp339
g12
g13
sg14
S'Lohit Tamil'
p340
sg16
I400
sg17
g13
sg18
g13
sg19
S'/usr/share/fonts/lohit-tamil/Lohit-Tamil.ttf'
p341
sg21
g22
sbag7
(g8
g9
NtRp342
(dp343
g12
g38
sg14
S'Liberation Mono'
p344
sg16
I700
sg17
g13
sg18
g13
sg19
S'/usr/share/fonts/liberation/LiberationMono-BoldItalic.ttf'
p345
sg21
g22
sbag7
(g8
g9
NtRp346
(dp347
g12
g38
sg14
S'Liberation Mono'
p348
sg16
I400
sg17
g13
sg18
g13
sg19
S'/usr/share/fonts/liberation/LiberationMono-Italic.ttf'
p349
sg21
g22
sbag7
(g8
g9
NtRp350
(dp351
g12
g13
sg14
S'DejaVu LGC Sans Mono'
p352
sg16
I700
sg17
g13
sg18
g13
sg19
S'/usr/share/fonts/dejavu/DejaVuLGCSansMono-Bold.ttf'
p353
sg21
g22
sbag7
(g8
g9
NtRp354
(dp355
g12
g33
sg14
S'DejaVu Sans'
p356
sg16
I700
sg17
g40
sg18
g13
sg19
S'/usr/share/fonts/dejavu/DejaVuSansCondensed-BoldOblique.ttf'
p357
sg21
g22
sbag7
(g8
g9
NtRp358
(dp359
g12
g13
sg14
S'Lohit Bengali'
p360
sg16
I400
sg17
g13
sg18
g13
sg19
S'/usr/share/fonts/lohit-bengali/Lohit-Bengali.ttf'
p361
sg21
g22
sbag7
(g8
g9
NtRp362
(dp363
g12
g33
sg14
S'Waree'
p364
sg16
I400
sg17
g13
sg18
g13
sg19
S'/usr/share/fonts/thai-scalable/Waree-Oblique.ttf'
p365
sg21
g22
sbag7
(g8
g9
NtRp366
(dp367
g12
g13
sg14
S'KacstOffice'
p368
sg16
I400
sg17
g13
sg18
g13
sg19
S'/usr/share/fonts/kacst/KacstOffice.ttf'
p369
sg21
g22
sbag7
(g8
g9
NtRp370
(dp371
g12
g13
sg14
S'UnDotum'
p372
sg16
I700
sg17
g13
sg18
g13
sg19
S'/usr/share/fonts/un-core/UnDotumBold.ttf'
p373
sg21
g22
sbag7
(g8
g9
NtRp374
(dp375
g12
g13
sg14
S'kacstPen'
p376
sg16
I400
sg17
g13
sg18
g13
sg19
S'/usr/share/fonts/kacst/kacstPen.ttf'
p377
sg21
g22
sbag7
(g8
g9
NtRp378
(dp379
g12
g13
sg14
S'Liberation Serif'
p380
sg16
I400
sg17
g13
sg18
g13
sg19
S'/usr/share/fonts/liberation/LiberationSerif-Regular.ttf'
p381
sg21
g22
sbag7
(g8
g9
NtRp382
(dp383
g12
g13
sg14
S'DejaVu LGC Sans Mono'
p384
sg16
I400
sg17
g13
sg18
g13
sg19
S'/usr/share/fonts/dejavu/DejaVuLGCSansMono.ttf'
p385
sg21
g22
sbag7
(g8
g9
NtRp386
(dp387
g12
g13
sg14
S'DejaVu Sans'
p388
sg16
I700
sg17
g40
sg18
g13
sg19
S'/usr/share/fonts/dejavu/DejaVuSansCondensed-Bold.ttf'
p389
sg21
g22
sbag7
(g8
g9
NtRp390
(dp391
g12
g13
sg14
S'Liberation Serif'
p392
sg16
I700
sg17
g13
sg18
g13
sg19
S'/usr/share/fonts/liberation/LiberationSerif-Bold.ttf'
p393
sg21
g22
sbag7
(g8
g9
NtRp394
(dp395
g12
g33
sg14
S'FreeMono'
p396
sg16
I400
sg17
g13
sg18
g13
sg19
S'/usr/share/fonts/gnu-free/FreeMonoOblique.ttf'
p397
sg21
g22
sbag7
(g8
g9
NtRp398
(dp399
g12
g38
sg14
S'Liberation Serif'
p400
sg16
I400
sg17
g13
sg18
g13
sg19
S'/usr/share/fonts/liberation/LiberationSerif-Italic.ttf'
p401
sg21
g22
sbag7
(g8
g9
NtRp402
(dp403
g12
g33
sg14
S'DejaVu LGC Sans Mono'
p404
sg16
I700
sg17
g13
sg18
g13
sg19
S'/usr/share/fonts/dejavu/DejaVuLGCSansMono-BoldOblique.ttf'
p405
sg21
g22
sbag7
(g8
g9
NtRp406
(dp407
g12
g38
sg14
S'PT Sans'
p408
sg16
I700
sg17
g13
sg18
g13
sg19
S'/usr/share/fonts/paratype-pt-sans/PTS76F.ttf'
p409
sg21
g22
sbag7
(g8
g9
NtRp410
(dp411
g12
g13
sg14
S'KacstArt'
p412
sg16
I400
sg17
g13
sg18
g13
sg19
S'/usr/share/fonts/kacst/KacstArt.ttf'
p413
sg21
g22
sbag7
(g8
g9
NtRp414
(dp415
g12
g13
sg14
S'Bitstream Vera Sans Mono'
p416
sg16
I700
sg17
g13
sg18
g13
sg19
S'/usr/share/fonts/bitstream-vera/VeraMoBd.ttf'
p417
sg21
g22
sbag7
(g8
g9
NtRp418
(dp419
g12
g38
sg14
S'Liberation Sans'
p420
sg16
I400
sg17
g13
sg18
g13
sg19
S'/usr/share/fonts/liberation/LiberationSans-Italic.ttf'
p421
sg21
g22
sbag7
(g8
g9
NtRp422
(dp423
g12
g13
sg14
S'DejaVu Sans Mono'
p424
sg16
I700
sg17
g13
sg18
g13
sg19
S'/usr/share/fonts/dejavu/DejaVuSansMono-Bold.ttf'
p425
sg21
g22
sbag7
(g8
g9
NtRp426
(dp427
g12
g13
sg14
S'Padauk'
p428
sg16
I400
sg17
g13
sg18
g13
sg19
S'/usr/share/fonts/sil-padauk/Padauk.ttf'
p429
sg21
g22
sbag7
(g8
g9
NtRp430
(dp431
g12
g13
sg14
S'Lohit Telugu'
p432
sg16
I400
sg17
g13
sg18
g13
sg19
S'/usr/share/fonts/lohit-telugu/Lohit-Telugu.ttf'
p433
sg21
g22
sbag7
(g8
g9
NtRp434
(dp435
g12
g13
sg14
S'DejaVu Sans'
p436
sg16
I400
sg17
g13
sg18
g13
sg19
S'/usr/share/fonts/dejavu/DejaVuSans.ttf'
p437
sg21
g22
sbag7
(g8
g9
NtRp438
(dp439
g12
g13
sg14
S'Liberation Sans Narrow'
p440
sg16
I400
sg17
g40
sg18
g13
sg19
S'/usr/share/fonts/liberation/LiberationSansNarrow.ttf'
p441
sg21
g22
sbag7
(g8
g9
NtRp442
(dp443
g12
g13
sg14
S'Cantarell'
p444
sg16
I700
sg17
g13
sg18
g13
sg19
S'/usr/share/fonts/abattis-cantarell/Cantarell-Bold.otf'
p445
sg21
g22
sbag7
(g8
g9
NtRp446
(dp447
g12
g13
sg14
S'Lohit Oriya'
p448
sg16
I400
sg17
g13
sg18
g13
sg19
S'/usr/share/fonts/lohit-oriya/Lohit-Oriya.ttf'
p449
sg21
g22
sbag7
(g8
g9
NtRp450
(dp451
g12
g13
sg14
S'PakType Naqsh'
p452
sg16
I400
sg17
g13
sg18
g13
sg19
S'/usr/share/fonts/paktype-naqsh/PakType_Naqsh.ttf'
p453
sg21
g22
sbag7
(g8
g9
NtRp454
(dp455
g12
g38
sg14
S'DejaVu Serif'
p456
sg16
I700
sg17
g13
sg18
g13
sg19
S'/usr/share/fonts/dejavu/DejaVuSerif-BoldItalic.ttf'
p457
sg21
g22
sbag7
(g8
g9
NtRp458
(dp459
g12
g13
sg14
S'KacstOne'
p460
sg16
I400
sg17
g13
sg18
g13
sg19
S'/usr/share/fonts/kacst/KacstOne.ttf'
p461
sg21
g22
sbag7
(g8
g9
NtRp462
(dp463
g12
g13
sg14
S'Bitstream Vera Sans'
p464
sg16
I700
sg17
g13
sg18
g13
sg19
S'/usr/share/fonts/bitstream-vera/VeraBd.ttf'
p465
sg21
g22
sbag7
(g8
g9
NtRp466
(dp467
g12
g13
sg14
S'DejaVu Serif'
p468
sg16
I700
sg17
g40
sg18
g13
sg19
S'/usr/share/fonts/dejavu/DejaVuSerifCondensed-Bold.ttf'
p469
sg21
g22
sbag7
(g8
g9
NtRp470
(dp471
g12
g13
sg14
S'PT Sans'
p472
sg16
I400
sg17
g13
sg18
g13
sg19
S'/usr/share/fonts/paratype-pt-sans/PTS55F.ttf'
p473
sg21
g22
sbag7
(g8
g9
NtRp474
(dp475
g12
g13
sg14
S'Lohit Devanagari'
p476
sg16
I400
sg17
g13
sg18
g13
sg19
S'/usr/share/fonts/lohit-devanagari/Lohit-Devanagari.ttf'
p477
sg21
g22
sbag7
(g8
g9
NtRp478
(dp479
g12
g13
sg14
S'VL Gothic'
p480
sg16
I400
sg17
g13
sg18
g13
sg19
S'/usr/share/fonts/vlgothic/VL-Gothic-Regular.ttf'
p481
sg21
g22
sbag7
(g8
g9
NtRp482
(dp483
g12
g38
sg14
S'Liberation Serif'
p484
sg16
I700
sg17
g13
sg18
g13
sg19
S'/usr/share/fonts/liberation/LiberationSerif-BoldItalic.ttf'
p485
sg21
g22
sbasS'defaultFamily'
p486
(dp487
S'afm'
p488
S'Helvetica'
p489
sS'ttf'
p490
S'Bitstream Vera Sans'
p491
ssS'ttffiles'
p492
(lp493
S'/usr/share/fonts/un-core/UnDotum.ttf'
p494
aS'/usr/share/fonts/kacst/KacstScreen.ttf'
p495
aS'/usr/share/fonts/kacst/KacstBook.ttf'
p496
aS'/usr/share/fonts/gnu-free/FreeSansOblique.ttf'
p497
aS'/usr/share/fonts/dejavu/DejaVuSerifCondensed-BoldItalic.ttf'
p498
aS'/usr/share/fonts/gnu-free/FreeSansBoldOblique.ttf'
p499
aS'/usr/share/fonts/lohit-gujarati/Lohit-Gujarati.ttf'
p500
aS'/usr/share/fonts/stix/STIXGeneralItalic.otf'
p501
aS'/usr/share/fonts/liberation/LiberationSansNarrow-BoldItalic.ttf'
p502
aS'/usr/share/fonts/dejavu/DejaVuSans-Bold.ttf'
p503
aS'/usr/share/fonts/jomolhari/Jomolhari-alpha3c-0605331.ttf'
p504
aS'/usr/share/fonts/bitstream-vera/VeraIt.ttf'
p505
aS'/usr/share/fonts/paktype-tehreer/PakType_Tehreer.ttf'
p506
aS'/usr/share/fonts/gnu-free/FreeSerif.ttf'
p507
aS'/usr/share/fonts/kacst/KacstDecorative.ttf'
p508
aS'/usr/share/fonts/dejavu/DejaVuSansCondensed.ttf'
p509
aS'/usr/share/fonts/bitstream-vera/VeraMoBI.ttf'
p510
aS'/usr/share/fonts/gnu-free/FreeSans.ttf'
p511
aS'/usr/share/fonts/dejavu/DejaVuSansCondensed-Oblique.ttf'
p512
aS'/usr/share/fonts/thai-scalable/Waree-Bold.ttf'
p513
aS'/usr/share/fonts/khmeros/KhmerOS_content.ttf'
p514
aS'/usr/share/fonts/dejavu/DejaVuSans-Oblique.ttf'
p515
aS'/usr/share/fonts/liberation/LiberationMono-Bold.ttf'
p516
aS'/usr/share/fonts/khmeros/KhmerOS.ttf'
p517
aS'/usr/share/fonts/stix/STIXGeneral.otf'
p518
aS'/usr/share/fonts/smc/Meera.ttf'
p519
aS'/usr/share/fonts/gnu-free/FreeMonoBoldOblique.ttf'
p520
aS'/usr/share/fonts/dejavu/DejaVuSerifCondensed.ttf'
p521
aS'/usr/share/fonts/liberation/LiberationSans-Regular.ttf'
p522
aS'/usr/share/fonts/liberation/LiberationSans-Bold.ttf'
p523
aS'/usr/share/fonts/kacst/KacstQurn.ttf'
p524
aS'/usr/share/fonts/dejavu/DejaVuSerif-Bold.ttf'
p525
aS'/usr/share/fonts/lohit-kannada/Lohit-Kannada.ttf'
p526
aS'/usr/share/fonts/dejavu/DejaVuSerifCondensed-Italic.ttf'
p527
aS'/usr/share/fonts/paratype-pt-sans/PTN57F.ttf'
p528
aS'/usr/share/fonts/thai-scalable/Waree-BoldOblique.ttf'
p529
aS'/usr/share/fonts/bitstream-vera/Vera.ttf'
p530
aS'/usr/share/fonts/gnu-free/FreeSerifBold.ttf'
p531
aS'/usr/share/fonts/liberation/LiberationMono-Regular.ttf'
p532
aS'/usr/share/fonts/bitstream-vera/VeraBI.ttf'
p533
aS'/usr/share/fonts/dejavu/DejaVuLGCSansMono-Oblique.ttf'
p534
aS'/usr/share/fonts/gnu-free/FreeMonoBold.ttf'
p535
aS'/usr/share/fonts/lohit-punjabi/Lohit-Punjabi.ttf'
p536
aS'/usr/share/fonts/gnu-free/FreeMono.ttf'
p537
aS'/usr/share/fonts/abattis-cantarell/Cantarell-Regular.otf'
p538
aS'/usr/share/fonts/gnu-free/FreeSansBold.ttf'
p539
aS'/usr/share/fonts/dejavu/DejaVuSerif-Italic.ttf'
p540
aS'/usr/share/fonts/dejavu/DejaVuSansMono-BoldOblique.ttf'
p541
aS'/usr/share/fonts/gnu-free/FreeSerifBoldItalic.ttf'
p542
aS'/usr/share/fonts/dejavu/DejaVuSans-ExtraLight.ttf'
p543
aS'/usr/share/fonts/sil-abyssinica/Abyssinica_SIL.ttf'
p544
aS'/usr/share/fonts/sil-padauk/Padauk-Bold.ttf'
p545
aS'/usr/share/fonts/paratype-pt-sans/PTS75F.ttf'
p546
aS'/usr/share/fonts/khmeros/KhmerOS_sys.ttf'
p547
aS'/usr/share/fonts/kacst/KacstFarsi.ttf'
p548
aS'/usr/share/fonts/opensymbol/opens___.ttf'
p549
aS'/usr/share/fonts/dejavu/DejaVuSansMono.ttf'
p550
aS'/usr/share/fonts/bitstream-vera/VeraMono.ttf'
p551
aS'/usr/share/fonts/liberation/LiberationSansNarrow-Italic.ttf'
p552
aS'/usr/share/fonts/kacst/KacstPoster.ttf'
p553
aS'/usr/share/fonts/stix/STIXGeneralBol.otf'
p554
aS'/usr/share/fonts/bitstream-vera/VeraMoIt.ttf'
p555
aS'/usr/share/fonts/stix/STIXGeneralBolIta.otf'
p556
aS'/usr/share/fonts/dejavu/DejaVuSerif.ttf'
p557
aS'/usr/share/fonts/kacst/KacstTitleL.ttf'
p558
aS'/usr/share/fonts/kacst/KacstLetter.ttf'
p559
aS'/usr/share/fonts/kacst/KacstTitle.ttf'
p560
aS'/usr/share/fonts/paratype-pt-sans/PTS56F.ttf'
p561
aS'/usr/share/fonts/dejavu/DejaVuSansMono-Oblique.ttf'
p562
aS'/usr/share/fonts/kacst/KacstNaskh.ttf'
p563
aS'/usr/share/fonts/gnu-free/FreeSerifItalic.ttf'
p564
aS'/usr/share/fonts/lklug/lklug.ttf'
p565
aS'/usr/share/fonts/liberation/LiberationSans-BoldItalic.ttf'
p566
aS'/usr/share/fonts/thai-scalable/Waree.ttf'
p567
aS'/usr/share/fonts/kacst/KacstDigital.ttf'
p568
aS'/usr/share/fonts/liberation/LiberationSansNarrow-Bold.ttf'
p569
aS'/usr/share/fonts/lohit-assamese/Lohit-Assamese.ttf'
p570
aS'/usr/share/fonts/paratype-pt-sans/PTN77F.ttf'
p571
aS'/usr/share/fonts/dejavu/DejaVuSans-BoldOblique.ttf'
p572
aS'/usr/share/fonts/lohit-tamil/Lohit-Tamil.ttf'
p573
aS'/usr/share/fonts/liberation/LiberationMono-BoldItalic.ttf'
p574
aS'/usr/share/fonts/liberation/LiberationMono-Italic.ttf'
p575
aS'/usr/share/fonts/dejavu/DejaVuLGCSansMono-Bold.ttf'
p576
aS'/usr/share/fonts/dejavu/DejaVuSansCondensed-BoldOblique.ttf'
p577
aS'/usr/share/fonts/lohit-bengali/Lohit-Bengali.ttf'
p578
aS'/usr/share/fonts/thai-scalable/Waree-Oblique.ttf'
p579
aS'/usr/share/fonts/kacst/KacstOffice.ttf'
p580
aS'/usr/share/fonts/un-core/UnDotumBold.ttf'
p581
aS'/usr/share/fonts/kacst/kacstPen.ttf'
p582
aS'/usr/share/fonts/liberation/LiberationSerif-Regular.ttf'
p583
aS'/usr/share/fonts/dejavu/DejaVuLGCSansMono.ttf'
p584
aS'/usr/share/fonts/dejavu/DejaVuSansCondensed-Bold.ttf'
p585
aS'/usr/share/fonts/liberation/LiberationSerif-Bold.ttf'
p586
aS'/usr/share/fonts/gnu-free/FreeMonoOblique.ttf'
p587
aS'/usr/share/fonts/liberation/LiberationSerif-Italic.ttf'
p588
aS'/usr/share/fonts/dejavu/DejaVuLGCSansMono-BoldOblique.ttf'
p589
aS'/usr/share/fonts/paratype-pt-sans/PTS76F.ttf'
p590
aS'/usr/share/fonts/kacst/KacstArt.ttf'
p591
aS'/usr/share/fonts/bitstream-vera/VeraMoBd.ttf'
p592
aS'/usr/share/fonts/liberation/LiberationSans-Italic.ttf'
p593
aS'/usr/share/fonts/dejavu/DejaVuSansMono-Bold.ttf'
p594
aS'/usr/share/fonts/sil-padauk/Padauk.ttf'
p595
aS'/usr/share/fonts/lohit-telugu/Lohit-Telugu.ttf'
p596
aS'/usr/share/fonts/dejavu/DejaVuSans.ttf'
p597
aS'/usr/share/fonts/liberation/LiberationSansNarrow.ttf'
p598
aS'/usr/share/fonts/abattis-cantarell/Cantarell-Bold.otf'
p599
aS'/usr/share/fonts/lohit-oriya/Lohit-Oriya.ttf'
p600
aS'/usr/share/fonts/paktype-naqsh/PakType_Naqsh.ttf'
p601
aS'/usr/share/fonts/dejavu/DejaVuSerif-BoldItalic.ttf'
p602
aS'/usr/share/fonts/kacst/KacstOne.ttf'
p603
aS'/usr/share/fonts/bitstream-vera/VeraBd.ttf'
p604
aS'/usr/share/fonts/dejavu/DejaVuSerifCondensed-Bold.ttf'
p605
aS'/usr/share/fonts/paratype-pt-sans/PTS55F.ttf'
p606
aS'/usr/share/fonts/lohit-devanagari/Lohit-Devanagari.ttf'
p607
aS'/usr/share/fonts/vlgothic/VL-Gothic-Regular.ttf'
p608
aS'/usr/share/fonts/liberation/LiberationSerif-BoldItalic.ttf'
p609
asS'_FontManager__default_weight'
p610
g13
sS'_version'
p611
I7
sS'ttf_lookup_cache'
p612
(dp613
sS'default_size'
p614
NsS'defaultFont'
p615
(dp616
g488
Nsg490
g530
ssS'afmfiles'
p617
(lp618
S'/usr/share/fonts/default/ghostscript/fcyri.afm'
p619
aS'/usr/share/fonts/default/Type1/n021023l.afm'
p620
aS'/usr/share/fonts/default/ghostscript/u003043t.afm'
p621
aS'/usr/share/fonts/default/Type1/b018032l.afm'
p622
aS'/usr/share/fonts/default/Type1/n019064l.afm'
p623
aS'/usr/share/fonts/default/Type1/p052024l.afm'
p624
aS'/usr/share/fonts/default/Type1/n019003l.afm'
p625
aS'/usr/share/fonts/default/Type1/n021003l.afm'
p626
aS'/usr/share/fonts/default/Type1/b018035l.afm'
p627
aS'/usr/share/fonts/default/Type1/p052003l.afm'
p628
aS'/usr/share/fonts/default/Type1/n022023l.afm'
p629
aS'/usr/share/fonts/default/Type1/n021024l.afm'
p630
aS'/usr/share/fonts/default/Type1/a010015l.afm'
p631
aS'/usr/share/fonts/default/Type1/p052004l.afm'
p632
aS'/usr/share/fonts/default/Type1/n019023l.afm'
p633
aS'/usr/share/fonts/default/Type1/n022004l.afm'
p634
aS'/usr/share/fonts/default/Type1/n019063l.afm'
p635
aS'/usr/share/fonts/default/Type1/n019043l.afm'
p636
aS'/usr/share/fonts/default/ghostscript/bchri.afm'
p637
aS'/usr/share/fonts/default/ghostscript/bchb.afm'
p638
aS'/usr/share/fonts/default/Type1/n019044l.afm'
p639
aS'/usr/share/fonts/default/Type1/n021004l.afm'
p640
aS'/usr/share/fonts/default/ghostscript/bchbi.afm'
p641
aS'/usr/share/fonts/default/Type1/n019024l.afm'
p642
aS'/usr/share/fonts/default/Type1/a010013l.afm'
p643
aS'/usr/share/fonts/default/ghostscript/fcyr.afm'
p644
aS'/usr/share/fonts/default/ghostscript/bchr.afm'
p645
aS'/usr/share/fonts/default/Type1/a010035l.afm'
p646
aS'/usr/share/fonts/default/Type1/z003034l.afm'
p647
aS'/usr/share/fonts/default/Type1/c059036l.afm'
p648
aS'/usr/share/fonts/default/Type1/n019004l.afm'
p649
aS'/usr/share/fonts/default/Type1/s050000l.afm'
p650
aS'/usr/share/fonts/default/Type1/b018012l.afm'
p651
aS'/usr/share/fonts/default/Type1/d050000l.afm'
p652
aS'/usr/share/fonts/default/Type1/c059013l.afm'
p653
aS'/usr/share/fonts/default/Type1/n022024l.afm'
p654
aS'/usr/share/fonts/default/Type1/a010033l.afm'
p655
aS'/usr/share/fonts/default/Type1/c059033l.afm'
p656
aS'/usr/share/fonts/default/Type1/n022003l.afm'
p657
aS'/usr/share/fonts/default/ghostscript/u004006t.afm'
p658
aS'/usr/share/fonts/default/Type1/p052023l.afm'
p659
aS'/usr/share/fonts/default/Type1/b018015l.afm'
p660
aS'/usr/share/fonts/default/Type1/c059016l.afm'
p661
asS'afmlist'
p662
(lp663
g7
(g8
g9
NtRp664
(dp665
g12
g38
sg14
S'Cyrillic'
p666
sg16
I500
sg17
g13
sg18
g13
sg19
g619
sg21
g22
sbag7
(g8
g9
NtRp667
(dp668
g12
g38
sg14
S'Nimbus Roman No9 L'
p669
sg16
I400
sg17
g13
sg18
g13
sg19
g620
sg21
g22
sbag7
(g8
g9
NtRp670
(dp671
g12
g13
sg14
S'URW Antiqua T'
p672
sg16
I400
sg17
g40
sg18
g13
sg19
g621
sg21
g22
sbag7
(g8
g9
NtRp673
(dp674
g12
g38
sg14
S'URW Bookman L'
p675
sg16
I400
sg17
g13
sg18
g13
sg19
g622
sg21
g22
sbag7
(g8
g9
NtRp676
(dp677
g12
g38
sg14
S'Nimbus Sans L'
p678
sg16
I700
sg17
g40
sg18
g13
sg19
g623
sg21
g22
sbag7
(g8
g9
NtRp679
(dp680
g12
g38
sg14
S'URW Palladio L'
p681
sg16
I700
sg17
g13
sg18
g13
sg19
g624
sg21
g22
sbag7
(g8
g9
NtRp682
(dp683
g12
g13
sg14
S'Nimbus Sans L'
p684
sg16
I400
sg17
g13
sg18
g13
sg19
g625
sg21
g22
sbag7
(g8
g9
NtRp685
(dp686
g12
g13
sg14
S'Nimbus Roman No9 L'
p687
sg16
I400
sg17
g13
sg18
g13
sg19
g626
sg21
g22
sbag7
(g8
g9
NtRp688
(dp689
g12
g38
sg14
S'URW Bookman L'
p690
sg16
I700
sg17
g13
sg18
g13
sg19
g627
sg21
g22
sbag7
(g8
g9
NtRp691
(dp692
g12
g13
sg14
S'URW Palladio L'
p693
sg16
I500
sg17
g13
sg18
g13
sg19
g628
sg21
g22
sbag7
(g8
g9
NtRp694
(dp695
g12
g38
sg14
S'Nimbus Mono L'
p696
sg16
I400
sg17
g13
sg18
g13
sg19
g629
sg21
g22
sbag7
(g8
g9
NtRp697
(dp698
g12
g38
sg14
S'Nimbus Roman No9 L'
p699
sg16
I700
sg17
g13
sg18
g13
sg19
g630
sg21
g22
sbag7
(g8
g9
NtRp700
(dp701
g12
g13
sg14
S'URW Gothic L'
p702
sg16
I600
sg17
g13
sg18
g13
sg19
g631
sg21
g22
sbag7
(g8
g9
NtRp703
(dp704
g12
g13
sg14
S'URW Palladio L'
p705
sg16
I700
sg17
g13
sg18
g13
sg19
g632
sg21
g22
sbag7
(g8
g9
NtRp706
(dp707
g12
g38
sg14
S'Nimbus Sans L'
p708
sg16
I400
sg17
g13
sg18
g13
sg19
g633
sg21
g22
sbag7
(g8
g9
NtRp709
(dp710
g12
g13
sg14
S'Nimbus Mono L'
p711
sg16
I700
sg17
g13
sg18
g13
sg19
g634
sg21
g22
sbag7
(g8
g9
NtRp712
(dp713
g12
g38
sg14
S'Nimbus Sans L'
p714
sg16
I400
sg17
g40
sg18
g13
sg19
g635
sg21
g22
sbag7
(g8
g9
NtRp715
(dp716
g12
g13
sg14
S'Nimbus Sans L'
p717
sg16
I400
sg17
g40
sg18
g13
sg19
g636
sg21
g22
sbag7
(g8
g9
NtRp718
(dp719
g12
g38
sg14
S'Bitstream Charter'
p720
sg16
I400
sg17
g13
sg18
g13
sg19
g637
sg21
g22
sbag7
(g8
g9
NtRp721
(dp722
g12
g13
sg14
S'Bitstream Charter'
p723
sg16
I700
sg17
g13
sg18
g13
sg19
g638
sg21
g22
sbag7
(g8
g9
NtRp724
(dp725
g12
g13
sg14
S'Nimbus Sans L'
p726
sg16
I700
sg17
g40
sg18
g13
sg19
g639
sg21
g22
sbag7
(g8
g9
NtRp727
(dp728
g12
g13
sg14
S'Nimbus Roman No9 L'
p729
sg16
I700
sg17
g13
sg18
g13
sg19
g640
sg21
g22
sbag7
(g8
g9
NtRp730
(dp731
g12
g38
sg14
S'Bitstream Charter'
p732
sg16
I700
sg17
g13
sg18
g13
sg19
g641
sg21
g22
sbag7
(g8
g9
NtRp733
(dp734
g12
g38
sg14
S'Nimbus Sans L'
p735
sg16
I700
sg17
g13
sg18
g13
sg19
g642
sg21
g22
sbag7
(g8
g9
NtRp736
(dp737
g12
g13
sg14
S'URW Gothic L'
p738
sg16
I400
sg17
g13
sg18
g13
sg19
g643
sg21
g22
sbag7
(g8
g9
NtRp739
(dp740
g12
g13
sg14
S'Cyrillic'
p741
sg16
I500
sg17
g13
sg18
g13
sg19
g644
sg21
g22
sbag7
(g8
g9
NtRp742
(dp743
g12
g13
sg14
S'Bitstream Charter'
p744
sg16
I400
sg17
g13
sg18
g13
sg19
g645
sg21
g22
sbag7
(g8
g9
NtRp745
(dp746
g12
g38
sg14
S'URW Gothic L'
p747
sg16
I600
sg17
g13
sg18
g13
sg19
g646
sg21
g22
sbag7
(g8
g9
NtRp748
(dp749
g12
g38
sg14
S'URW Chancery L'
p750
sg16
I500
sg17
g13
sg18
g13
sg19
g647
sg21
g22
sbag7
(g8
g9
NtRp751
(dp752
g12
g38
sg14
S'Century Schoolbook L'
p753
sg16
I700
sg17
g13
sg18
g13
sg19
g648
sg21
g22
sbag7
(g8
g9
NtRp754
(dp755
g12
g13
sg14
S'Nimbus Sans L'
p756
sg16
I700
sg17
g13
sg18
g13
sg19
g649
sg21
g22
sbag7
(g8
g9
NtRp757
(dp758
g12
g13
sg14
S'Standard Symbols L'
p759
sg16
I400
sg17
g13
sg18
g13
sg19
g650
sg21
g22
sbag7
(g8
g9
NtRp760
(dp761
g12
g13
sg14
S'URW Bookman L'
p762
sg16
I400
sg17
g13
sg18
g13
sg19
g651
sg21
g22
sbag7
(g8
g9
NtRp763
(dp764
g12
g13
sg14
S'Dingbats'
p765
sg16
I400
sg17
g13
sg18
g13
sg19
g652
sg21
g22
sbag7
(g8
g9
NtRp766
(dp767
g12
g13
sg14
S'Century Schoolbook L'
p768
sg16
I500
sg17
g13
sg18
g13
sg19
g653
sg21
g22
sbag7
(g8
g9
NtRp769
(dp770
g12
g38
sg14
S'Nimbus Mono L'
p771
sg16
I700
sg17
g13
sg18
g13
sg19
g654
sg21
g22
sbag7
(g8
g9
NtRp772
(dp773
g12
g38
sg14
S'URW Gothic L'
p774
sg16
I400
sg17
g13
sg18
g13
sg19
g655
sg21
g22
sbag7
(g8
g9
NtRp775
(dp776
g12
g38
sg14
S'Century Schoolbook L'
p777
sg16
I400
sg17
g13
sg18
g13
sg19
g656
sg21
g22
sbag7
(g8
g9
NtRp778
(dp779
g12
g13
sg14
S'Nimbus Mono L'
p780
sg16
I400
sg17
g13
sg18
g13
sg19
g657
sg21
g22
sbag7
(g8
g9
NtRp781
(dp782
g12
g13
sg14
S'URW Grotesk T'
p783
sg16
I400
sg17
g13
sg18
g13
sg19
g658
sg21
g22
sbag7
(g8
g9
NtRp784
(dp785
g12
g38
sg14
S'URW Palladio L'
p786
sg16
I400
sg17
g13
sg18
g13
sg19
g659
sg21
g22
sbag7
(g8
g9
NtRp787
(dp788
g12
g13
sg14
S'URW Bookman L'
p789
sg16
I700
sg17
g13
sg18
g13
sg19
g660
sg21
g22
sbag7
(g8
g9
NtRp790
(dp791
g12
g13
sg14
S'Century Schoolbook L'
p792
sg16
I700
sg17
g13
sg18
g13
sg19
g661
sg21
g22
sbasb.